
./kybOS:     file format elf32-littlearm


Disassembly of section .text:

00008000 <_start>:
    8000:	e59ff018 	ldr	pc, [pc, #24]	; 8020 <_reset_h>
    8004:	e59ff018 	ldr	pc, [pc, #24]	; 8024 <_undefined_instruction_vector_h>
    8008:	e59ff018 	ldr	pc, [pc, #24]	; 8028 <_software_interrupt_vector_h>
    800c:	e59ff018 	ldr	pc, [pc, #24]	; 802c <_prefetch_abort_vector_h>
    8010:	e59ff018 	ldr	pc, [pc, #24]	; 8030 <_data_abort_vector_h>
    8014:	e59ff018 	ldr	pc, [pc, #24]	; 8034 <_unused_handler_h>
    8018:	e59ff018 	ldr	pc, [pc, #24]	; 8038 <_interrupt_vector_h>
    801c:	e59ff018 	ldr	pc, [pc, #24]	; 803c <_fast_interrupt_vector_h>

00008020 <_reset_h>:
    8020:	00008040 	andeq	r8, r0, r0, asr #32

00008024 <_undefined_instruction_vector_h>:
    8024:	00008818 	andeq	r8, r0, r8, lsl r8

00008028 <_software_interrupt_vector_h>:
    8028:	00008284 	andeq	r8, r0, r4, lsl #5

0000802c <_prefetch_abort_vector_h>:
    802c:	000082b4 			; <UNDEFINED> instruction: 0x000082b4

00008030 <_data_abort_vector_h>:
    8030:	000082dc 	ldrdeq	r8, [r0], -ip

00008034 <_unused_handler_h>:
    8034:	00008040 	andeq	r8, r0, r0, asr #32

00008038 <_interrupt_vector_h>:
    8038:	0000809c 	muleq	r0, ip, r0

0000803c <_fast_interrupt_vector_h>:
    803c:	000089a0 	andeq	r8, r0, r0, lsr #19

00008040 <_reset_>:
    8040:	e3a00902 	mov	r0, #32768	; 0x8000
    8044:	e3a01000 	mov	r1, #0
    8048:	e8b003fc 	ldm	r0!, {r2, r3, r4, r5, r6, r7, r8, r9}
    804c:	e8a103fc 	stmia	r1!, {r2, r3, r4, r5, r6, r7, r8, r9}
    8050:	e8b003fc 	ldm	r0!, {r2, r3, r4, r5, r6, r7, r8, r9}
    8054:	e8a103fc 	stmia	r1!, {r2, r3, r4, r5, r6, r7, r8, r9}
    8058:	e3a000d2 	mov	r0, #210	; 0xd2
    805c:	e121f000 	msr	CPSR_c, r0
    8060:	e3a0d63f 	mov	sp, #66060288	; 0x3f00000
    8064:	e3a000db 	mov	r0, #219	; 0xdb
    8068:	e121f000 	msr	CPSR_c, r0
    806c:	e3a0d63d 	mov	sp, #63963136	; 0x3d00000
    8070:	e3a000d7 	mov	r0, #215	; 0xd7
    8074:	e121f000 	msr	CPSR_c, r0
    8078:	e3a0d50f 	mov	sp, #62914560	; 0x3c00000
    807c:	e3a000df 	mov	r0, #223	; 0xdf
    8080:	e121f000 	msr	CPSR_c, r0
    8084:	e3a0d63e 	mov	sp, #65011712	; 0x3e00000
    8088:	e3a000d3 	mov	r0, #211	; 0xd3
    808c:	e121f000 	msr	CPSR_c, r0
    8090:	e3a0d63b 	mov	sp, #61865984	; 0x3b00000
    8094:	eb000142 	bl	85a4 <_cstartup>

00008098 <_inf_loop>:
    8098:	eafffffe 	b	8098 <_inf_loop>

0000809c <interrupt_vector>:
    809c:	e24ee004 	sub	lr, lr, #4
    80a0:	e92d500f 	push	{r0, r1, r2, r3, ip, lr}
    80a4:	eb00022c 	bl	895c <interrupt_vector_c>
    80a8:	e3500000 	cmp	r0, #0
    80ac:	08fd900f 	ldmeq	sp!, {r0, r1, r2, r3, ip, pc}^
    80b0:	e8bd500f 	pop	{r0, r1, r2, r3, ip, lr}

000080b4 <find_origin_context_switch>:
    80b4:	e52d0004 	push	{r0}		; (str r0, [sp, #-4]!)
    80b8:	e14f0000 	mrs	r0, SPSR
    80bc:	e200001f 	and	r0, r0, #31
    80c0:	e3500010 	cmp	r0, #16
    80c4:	049d0004 	popeq	{r0}		; (ldreq r0, [sp], #4)
    80c8:	0a000002 	beq	80d8 <build_context_stack_user>
    80cc:	e3500013 	cmp	r0, #19
    80d0:	049d0004 	popeq	{r0}		; (ldreq r0, [sp], #4)
    80d4:	1a000010 	bne	811c <build_context_stack_svr>

000080d8 <build_context_stack_user>:
    80d8:	e52d0004 	push	{r0}		; (str r0, [sp, #-4]!)
    80dc:	e3a000df 	mov	r0, #223	; 0xdf
    80e0:	e121f000 	msr	CPSR_c, r0
    80e4:	e92d1ffe 	push	{r1, r2, r3, r4, r5, r6, r7, r8, r9, sl, fp, ip}
    80e8:	e3a000d2 	mov	r0, #210	; 0xd2
    80ec:	e121f000 	msr	CPSR_c, r0
    80f0:	e49d0004 	pop	{r0}		; (ldr r0, [sp], #4)
    80f4:	e14f1000 	mrs	r1, SPSR
    80f8:	e1a0200e 	mov	r2, lr
    80fc:	e3a030df 	mov	r3, #223	; 0xdf
    8100:	e121f003 	msr	CPSR_c, r3
    8104:	e52d0004 	push	{r0}		; (str r0, [sp, #-4]!)
    8108:	e92d4006 	push	{r1, r2, lr}
    810c:	e1a0000d 	mov	r0, sp
    8110:	e3a010d2 	mov	r1, #210	; 0xd2
    8114:	e121f001 	msr	CPSR_c, r1
    8118:	ea000010 	b	8160 <update_stack>

0000811c <build_context_stack_svr>:
    811c:	e52d0004 	push	{r0}		; (str r0, [sp, #-4]!)
    8120:	e3a000d3 	mov	r0, #211	; 0xd3
    8124:	e121f000 	msr	CPSR_c, r0
    8128:	e92d1ffe 	push	{r1, r2, r3, r4, r5, r6, r7, r8, r9, sl, fp, ip}
    812c:	e3a000d2 	mov	r0, #210	; 0xd2
    8130:	e121f000 	msr	CPSR_c, r0
    8134:	e49d0004 	pop	{r0}		; (ldr r0, [sp], #4)
    8138:	e14f1000 	mrs	r1, SPSR
    813c:	e1a0200e 	mov	r2, lr
    8140:	e3a030d3 	mov	r3, #211	; 0xd3
    8144:	e121f003 	msr	CPSR_c, r3
    8148:	e52d0004 	push	{r0}		; (str r0, [sp, #-4]!)
    814c:	e92d4006 	push	{r1, r2, lr}
    8150:	e1a0000d 	mov	r0, sp
    8154:	e3a010d2 	mov	r1, #210	; 0xd2
    8158:	e121f001 	msr	CPSR_c, r1
    815c:	eaffffff 	b	8160 <update_stack>

00008160 <update_stack>:
    8160:	eb0004f7 	bl	9544 <context_switch_c>
    8164:	e1a0100d 	mov	r1, sp
    8168:	e1a0d000 	mov	sp, r0
    816c:	e1a04000 	mov	r4, r0
    8170:	e49d0004 	pop	{r0}		; (ldr r0, [sp], #4)
    8174:	e52d0004 	push	{r0}		; (str r0, [sp, #-4]!)
    8178:	e1a0d001 	mov	sp, r1
    817c:	e200001f 	and	r0, r0, #31
    8180:	e3500010 	cmp	r0, #16
    8184:	0a000001 	beq	8190 <pop_return_stack_user>
    8188:	e3500013 	cmp	r0, #19
    818c:	0a000016 	beq	81ec <pop_return_stack_svr>

00008190 <pop_return_stack_user>:
    8190:	e3a000df 	mov	r0, #223	; 0xdf
    8194:	e121f000 	msr	CPSR_c, r0
    8198:	e1a0d004 	mov	sp, r4
    819c:	e8bd0007 	pop	{r0, r1, r2}
    81a0:	e1a0e002 	mov	lr, r2
    81a4:	e3a030d2 	mov	r3, #210	; 0xd2
    81a8:	e121f003 	msr	CPSR_c, r3
    81ac:	e52d1004 	push	{r1}		; (str r1, [sp, #-4]!)
    81b0:	e169f000 	msr	SPSR_fc, r0
    81b4:	e3a040df 	mov	r4, #223	; 0xdf
    81b8:	e121f004 	msr	CPSR_c, r4
    81bc:	e8bd1fff 	pop	{r0, r1, r2, r3, r4, r5, r6, r7, r8, r9, sl, fp, ip}
    81c0:	e52d0004 	push	{r0}		; (str r0, [sp, #-4]!)
    81c4:	e3a000d2 	mov	r0, #210	; 0xd2
    81c8:	e121f000 	msr	CPSR_c, r0
    81cc:	e92d1ffe 	push	{r1, r2, r3, r4, r5, r6, r7, r8, r9, sl, fp, ip}
    81d0:	e3a000df 	mov	r0, #223	; 0xdf
    81d4:	e121f000 	msr	CPSR_c, r0
    81d8:	e49d0004 	pop	{r0}		; (ldr r0, [sp], #4)
    81dc:	e3a010d2 	mov	r1, #210	; 0xd2
    81e0:	e121f001 	msr	CPSR_c, r1
    81e4:	e52d0004 	push	{r0}		; (str r0, [sp, #-4]!)
    81e8:	e8fd9fff 	ldm	sp!, {r0, r1, r2, r3, r4, r5, r6, r7, r8, r9, sl, fp, ip, pc}^

000081ec <pop_return_stack_svr>:
    81ec:	e3a000d3 	mov	r0, #211	; 0xd3
    81f0:	e121f000 	msr	CPSR_c, r0
    81f4:	e1a0d004 	mov	sp, r4
    81f8:	e8bd0007 	pop	{r0, r1, r2}
    81fc:	e1a0e002 	mov	lr, r2
    8200:	e3a030d2 	mov	r3, #210	; 0xd2
    8204:	e121f003 	msr	CPSR_c, r3
    8208:	e52d1004 	push	{r1}		; (str r1, [sp, #-4]!)
    820c:	e169f000 	msr	SPSR_fc, r0
    8210:	e3a040d3 	mov	r4, #211	; 0xd3
    8214:	e121f004 	msr	CPSR_c, r4
    8218:	e8bd1fff 	pop	{r0, r1, r2, r3, r4, r5, r6, r7, r8, r9, sl, fp, ip}
    821c:	e52d0004 	push	{r0}		; (str r0, [sp, #-4]!)
    8220:	e3a000d2 	mov	r0, #210	; 0xd2
    8224:	e121f000 	msr	CPSR_c, r0
    8228:	e92d1ffe 	push	{r1, r2, r3, r4, r5, r6, r7, r8, r9, sl, fp, ip}
    822c:	e3a000d3 	mov	r0, #211	; 0xd3
    8230:	e121f000 	msr	CPSR_c, r0
    8234:	e49d0004 	pop	{r0}		; (ldr r0, [sp], #4)
    8238:	e3a010d2 	mov	r1, #210	; 0xd2
    823c:	e121f001 	msr	CPSR_c, r1
    8240:	e52d0004 	push	{r0}		; (str r0, [sp, #-4]!)
    8244:	e8fd9fff 	ldm	sp!, {r0, r1, r2, r3, r4, r5, r6, r7, r8, r9, sl, fp, ip, pc}^

00008248 <software_context_switch>:
    8248:	e92d0007 	push	{r0, r1, r2}
    824c:	e14f0000 	mrs	r0, SPSR
    8250:	e1a0100e 	mov	r1, lr
    8254:	e3a020d2 	mov	r2, #210	; 0xd2
    8258:	e121f002 	msr	CPSR_c, r2
    825c:	e169f000 	msr	SPSR_fc, r0
    8260:	e1a0e001 	mov	lr, r1
    8264:	e52d3004 	push	{r3}		; (str r3, [sp, #-4]!)
    8268:	e3a020d3 	mov	r2, #211	; 0xd3
    826c:	e121f002 	msr	CPSR_c, r2
    8270:	e8bd0007 	pop	{r0, r1, r2}
    8274:	e3a030d2 	mov	r3, #210	; 0xd2
    8278:	e121f003 	msr	CPSR_c, r3
    827c:	e49d3004 	pop	{r3}		; (ldr r3, [sp], #4)
    8280:	eaffff8b 	b	80b4 <find_origin_context_switch>

00008284 <software_interrupt_vector>:
    8284:	e52d4004 	push	{r4}		; (str r4, [sp, #-4]!)
    8288:	e1a0400d 	mov	r4, sp
    828c:	e3a0d301 	mov	sp, #67108864	; 0x4000000
    8290:	e92d5000 	push	{ip, lr}
    8294:	eb00016b 	bl	8848 <software_interrupt_vector_c>
    8298:	e8bd5000 	pop	{ip, lr}
    829c:	e1a0d004 	mov	sp, r4
    82a0:	e49d4004 	pop	{r4}		; (ldr r4, [sp], #4)
    82a4:	e3500000 	cmp	r0, #0
    82a8:	1affffe6 	bne	8248 <software_context_switch>
    82ac:	e52de004 	push	{lr}		; (str lr, [sp, #-4]!)
    82b0:	e8fd8000 	ldm	sp!, {pc}^

000082b4 <prefetch_abort_vector>:
    82b4:	e24ee004 	sub	lr, lr, #4
    82b8:	e92d500f 	push	{r0, r1, r2, r3, ip, lr}
    82bc:	e1a0000e 	mov	r0, lr
    82c0:	e10f3000 	mrs	r3, CPSR
    82c4:	e14f2000 	mrs	r2, SPSR
    82c8:	e121f002 	msr	CPSR_c, r2
    82cc:	e1a0100d 	mov	r1, sp
    82d0:	e121f003 	msr	CPSR_c, r3
    82d4:	eb00017a 	bl	88c4 <prefetch_abort_vector_c>
    82d8:	e8fd900f 	ldm	sp!, {r0, r1, r2, r3, ip, pc}^

000082dc <data_abort_vector>:
    82dc:	e24ee008 	sub	lr, lr, #8
    82e0:	e92d500f 	push	{r0, r1, r2, r3, ip, lr}
    82e4:	e1a0000e 	mov	r0, lr
    82e8:	e10f3000 	mrs	r3, CPSR
    82ec:	e14f2000 	mrs	r2, SPSR
    82f0:	e121f002 	msr	CPSR_c, r2
    82f4:	e1a0100d 	mov	r1, sp
    82f8:	e121f003 	msr	CPSR_c, r3
    82fc:	eb000183 	bl	8910 <data_abort_vector_c>
    8300:	e8fd900f 	ldm	sp!, {r0, r1, r2, r3, ip, pc}^

00008304 <_get_stack_pointer>:
    8304:	e58dd000 	str	sp, [sp]
    8308:	e59d0000 	ldr	r0, [sp]
    830c:	e1a0f00e 	mov	pc, lr

00008310 <_get_user_sp>:
    8310:	e52d4004 	push	{r4}		; (str r4, [sp, #-4]!)
    8314:	e3a040df 	mov	r4, #223	; 0xdf
    8318:	e121f004 	msr	CPSR_c, r4
    831c:	e1a0000d 	mov	r0, sp
    8320:	e3a040d2 	mov	r4, #210	; 0xd2
    8324:	e121f004 	msr	CPSR_c, r4
    8328:	e49d4004 	pop	{r4}		; (ldr r4, [sp], #4)
    832c:	e1a0f00e 	mov	pc, lr

00008330 <_SYSTEM_CALL>:
    8330:	e92d5000 	push	{ip, lr}
    8334:	ef000000 	svc	0x00000000
    8338:	e8bd9000 	pop	{ip, pc}

0000833c <_get_cpsr>:
    833c:	e10f0000 	mrs	r0, CPSR
    8340:	e1a0f00e 	mov	pc, lr

00008344 <_push_stack_pointer>:
    8344:	e3a010df 	mov	r1, #223	; 0xdf
    8348:	e121f001 	msr	CPSR_c, r1
    834c:	e52d0004 	push	{r0}		; (str r0, [sp, #-4]!)
    8350:	e3a000d2 	mov	r0, #210	; 0xd2
    8354:	e121f000 	msr	CPSR_c, r0
    8358:	e1a0f00e 	mov	pc, lr

0000835c <_init_thr_stack>:
    835c:	e1a0300d 	mov	r3, sp
    8360:	e1a0d000 	mov	sp, r0
    8364:	e3a0002a 	mov	r0, #42	; 0x2a
    8368:	e52d0004 	push	{r0}		; (str r0, [sp, #-4]!)
    836c:	e52d0004 	push	{r0}		; (str r0, [sp, #-4]!)
    8370:	e3a00000 	mov	r0, #0
    8374:	e52d0004 	push	{r0}		; (str r0, [sp, #-4]!)
    8378:	e52d0004 	push	{r0}		; (str r0, [sp, #-4]!)
    837c:	e52d0004 	push	{r0}		; (str r0, [sp, #-4]!)
    8380:	e52d0004 	push	{r0}		; (str r0, [sp, #-4]!)
    8384:	e52d0004 	push	{r0}		; (str r0, [sp, #-4]!)
    8388:	e52d0004 	push	{r0}		; (str r0, [sp, #-4]!)
    838c:	e52d0004 	push	{r0}		; (str r0, [sp, #-4]!)
    8390:	e52d0004 	push	{r0}		; (str r0, [sp, #-4]!)
    8394:	e52d0004 	push	{r0}		; (str r0, [sp, #-4]!)
    8398:	e52d0004 	push	{r0}		; (str r0, [sp, #-4]!)
    839c:	e3a0002a 	mov	r0, #42	; 0x2a
    83a0:	e52d0004 	push	{r0}		; (str r0, [sp, #-4]!)
    83a4:	e52d0004 	push	{r0}		; (str r0, [sp, #-4]!)
    83a8:	e52d1004 	push	{r1}		; (str r1, [sp, #-4]!)
    83ac:	e52d2004 	push	{r2}		; (str r2, [sp, #-4]!)
    83b0:	e1a0000d 	mov	r0, sp
    83b4:	e1a0d003 	mov	sp, r3
    83b8:	e1a0f00e 	mov	pc, lr

000083bc <_set_cpu_mode>:
    83bc:	e1a0200e 	mov	r2, lr
    83c0:	e121f000 	msr	CPSR_c, r0
    83c4:	e1a0f002 	mov	pc, r2

000083c8 <_enable_interrupts>:
    83c8:	e10f0000 	mrs	r0, CPSR
    83cc:	e3c00080 	bic	r0, r0, #128	; 0x80
    83d0:	e121f000 	msr	CPSR_c, r0
    83d4:	e1a0f00e 	mov	pc, lr

000083d8 <loop_forever_and_ever>:
    83d8:	e24dd008 	sub	sp, sp, #8
    83dc:	e3a03000 	mov	r3, #0
    83e0:	e58d3004 	str	r3, [sp, #4]
    83e4:	e59d3004 	ldr	r3, [sp, #4]
    83e8:	e2833001 	add	r3, r3, #1
    83ec:	e58d3004 	str	r3, [sp, #4]
    83f0:	e59d3004 	ldr	r3, [sp, #4]
    83f4:	eafffffa 	b	83e4 <loop_forever_and_ever+0xc>

000083f8 <kernel_main>:
    83f8:	e92d40f0 	push	{r4, r5, r6, r7, lr}
    83fc:	e24dd00c 	sub	sp, sp, #12
    8400:	eb000171 	bl	89cc <uart_init>
    8404:	ebffffef 	bl	83c8 <_enable_interrupts>
    8408:	e30a074c 	movw	r0, #42828	; 0xa74c
    840c:	e3400000 	movt	r0, #0
    8410:	eb0001b3 	bl	8ae4 <uart_puts>
    8414:	e30a075c 	movw	r0, #42844	; 0xa75c
    8418:	e3400000 	movt	r0, #0
    841c:	eb0001b0 	bl	8ae4 <uart_puts>
    8420:	e30a0768 	movw	r0, #42856	; 0xa768
    8424:	e3400000 	movt	r0, #0
    8428:	eb0001ad 	bl	8ae4 <uart_puts>
    842c:	e3e00000 	mvn	r0, #0
    8430:	e3a01002 	mov	r1, #2
    8434:	eb0001db 	bl	8ba8 <uart_put_uint32_t>
    8438:	e30a0778 	movw	r0, #42872	; 0xa778
    843c:	e3400000 	movt	r0, #0
    8440:	eb0001a7 	bl	8ae4 <uart_puts>
    8444:	e3e00000 	mvn	r0, #0
    8448:	e3a0100a 	mov	r1, #10
    844c:	eb0001d5 	bl	8ba8 <uart_put_uint32_t>
    8450:	e30a0788 	movw	r0, #42888	; 0xa788
    8454:	e3400000 	movt	r0, #0
    8458:	eb0001a1 	bl	8ae4 <uart_puts>
    845c:	e3e00000 	mvn	r0, #0
    8460:	e3a01010 	mov	r1, #16
    8464:	eb0001cf 	bl	8ba8 <uart_put_uint32_t>
    8468:	e30a0b28 	movw	r0, #43816	; 0xab28
    846c:	e3400000 	movt	r0, #0
    8470:	eb00019b 	bl	8ae4 <uart_puts>
    8474:	eb000509 	bl	98a0 <jtag_enable>
    8478:	eb000383 	bl	928c <init_pri_array>
    847c:	e30a079c 	movw	r0, #42908	; 0xa79c
    8480:	e3400000 	movt	r0, #0
    8484:	eb000196 	bl	8ae4 <uart_puts>
    8488:	eb000517 	bl	98ec <mmu_init_table>
    848c:	eb000531 	bl	9958 <mmu_configure>
    8490:	eb0001fa 	bl	8c80 <cpu_control_config>
    8494:	e30a07ac 	movw	r0, #42924	; 0xa7ac
    8498:	e3400000 	movt	r0, #0
    849c:	eb000190 	bl	8ae4 <uart_puts>
    84a0:	e3a00003 	mov	r0, #3
    84a4:	e3a01000 	mov	r1, #0
    84a8:	e1a02001 	mov	r2, r1
    84ac:	e1a03001 	mov	r3, r1
    84b0:	ebffff9e 	bl	8330 <_SYSTEM_CALL>
    84b4:	e30a07bc 	movw	r0, #42940	; 0xa7bc
    84b8:	e3400000 	movt	r0, #0
    84bc:	eb000188 	bl	8ae4 <uart_puts>
    84c0:	eb0000c7 	bl	87e4 <get_gpio>
    84c4:	e5903010 	ldr	r3, [r0, #16]
    84c8:	e3833015 	orr	r3, r3, #21
    84cc:	e5803010 	str	r3, [r0, #16]
    84d0:	e30a07c4 	movw	r0, #42948	; 0xa7c4
    84d4:	e3400000 	movt	r0, #0
    84d8:	eb000181 	bl	8ae4 <uart_puts>
    84dc:	e3a04002 	mov	r4, #2
    84e0:	e3a06010 	mov	r6, #16
    84e4:	e58d6000 	str	r6, [sp]
    84e8:	e3080e24 	movw	r0, #36388	; 0x8e24
    84ec:	e3400000 	movt	r0, #0
    84f0:	e3a0100a 	mov	r1, #10
    84f4:	e3a02ffa 	mov	r2, #1000	; 0x3e8
    84f8:	e1a03004 	mov	r3, r4
    84fc:	eb00031d 	bl	9178 <thread_register>
    8500:	e3a05001 	mov	r5, #1
    8504:	e58d6000 	str	r6, [sp]
    8508:	e3080d88 	movw	r0, #36232	; 0x8d88
    850c:	e3400000 	movt	r0, #0
    8510:	e3a0100a 	mov	r1, #10
    8514:	e3a02ffa 	mov	r2, #1000	; 0x3e8
    8518:	e1a03005 	mov	r3, r5
    851c:	eb000315 	bl	9178 <thread_register>
    8520:	e3a07003 	mov	r7, #3
    8524:	e58d6000 	str	r6, [sp]
    8528:	e3080eb4 	movw	r0, #36532	; 0x8eb4
    852c:	e3400000 	movt	r0, #0
    8530:	e1a01005 	mov	r1, r5
    8534:	e3a02ffa 	mov	r2, #1000	; 0x3e8
    8538:	e1a03007 	mov	r3, r7
    853c:	eb00030d 	bl	9178 <thread_register>
    8540:	e30a07dc 	movw	r0, #42972	; 0xa7dc
    8544:	e3400000 	movt	r0, #0
    8548:	eb000165 	bl	8ae4 <uart_puts>
    854c:	eb0002b1 	bl	9018 <pcb_print>
    8550:	e1a00005 	mov	r0, r5
    8554:	e3a01000 	mov	r1, #0
    8558:	eb00033e 	bl	9258 <thread_start>
    855c:	e1a00004 	mov	r0, r4
    8560:	e3a01000 	mov	r1, #0
    8564:	eb00033b 	bl	9258 <thread_start>
    8568:	e1a00007 	mov	r0, r7
    856c:	e3a01000 	mov	r1, #0
    8570:	eb000338 	bl	9258 <thread_start>
    8574:	e30a07f0 	movw	r0, #42992	; 0xa7f0
    8578:	e3400000 	movt	r0, #0
    857c:	eb000158 	bl	8ae4 <uart_puts>
    8580:	e3020710 	movw	r0, #10000	; 0x2710
    8584:	eb000080 	bl	878c <arm_timer_set_freq>
    8588:	eb00008b 	bl	87bc <arm_timer_init>
    858c:	e1a00004 	mov	r0, r4
    8590:	e3a01000 	mov	r1, #0
    8594:	e1a02001 	mov	r2, r1
    8598:	e1a03001 	mov	r3, r1
    859c:	ebffff63 	bl	8330 <_SYSTEM_CALL>
    85a0:	ebffff8c 	bl	83d8 <loop_forever_and_ever>

000085a4 <_cstartup>:
    85a4:	e92d4008 	push	{r3, lr}
    85a8:	e30bc51c 	movw	ip, #46364	; 0xb51c
    85ac:	e340c000 	movt	ip, #0
    85b0:	e3043048 	movw	r3, #16456	; 0x4048
    85b4:	e3403001 	movt	r3, #1
    85b8:	e15c0003 	cmp	ip, r3
    85bc:	2a000009 	bcs	85e8 <_cstartup+0x44>
    85c0:	e24c3004 	sub	r3, ip, #4
    85c4:	e59fe024 	ldr	lr, [pc, #36]	; 85f0 <_cstartup+0x4c>
    85c8:	e063e00e 	rsb	lr, r3, lr
    85cc:	e3cee003 	bic	lr, lr, #3
    85d0:	e283c004 	add	ip, r3, #4
    85d4:	e08ee00c 	add	lr, lr, ip
    85d8:	e3a0c000 	mov	ip, #0
    85dc:	e5a3c004 	str	ip, [r3, #4]!
    85e0:	e153000e 	cmp	r3, lr
    85e4:	1afffffc 	bne	85dc <_cstartup+0x38>
    85e8:	ebffff82 	bl	83f8 <kernel_main>
    85ec:	eafffffe 	b	85ec <_cstartup+0x48>
    85f0:	00014043 	andeq	r4, r1, r3, asr #32

000085f4 <_exit>:
    85f4:	eafffffe 	b	85f4 <_exit>

000085f8 <close>:
    85f8:	e3e00000 	mvn	r0, #0
    85fc:	e12fff1e 	bx	lr

00008600 <execve>:
    8600:	e3043044 	movw	r3, #16452	; 0x4044
    8604:	e3403001 	movt	r3, #1
    8608:	e3a0200c 	mov	r2, #12
    860c:	e5832000 	str	r2, [r3]
    8610:	e3e00000 	mvn	r0, #0
    8614:	e12fff1e 	bx	lr

00008618 <fork>:
    8618:	e3043044 	movw	r3, #16452	; 0x4044
    861c:	e3403001 	movt	r3, #1
    8620:	e3a0200b 	mov	r2, #11
    8624:	e5832000 	str	r2, [r3]
    8628:	e3e00000 	mvn	r0, #0
    862c:	e12fff1e 	bx	lr

00008630 <fstat>:
    8630:	e3a03a02 	mov	r3, #8192	; 0x2000
    8634:	e5813004 	str	r3, [r1, #4]
    8638:	e3a00000 	mov	r0, #0
    863c:	e12fff1e 	bx	lr

00008640 <getpid>:
    8640:	e3a00001 	mov	r0, #1
    8644:	e12fff1e 	bx	lr

00008648 <isatty>:
    8648:	e3a00001 	mov	r0, #1
    864c:	e12fff1e 	bx	lr

00008650 <kill>:
    8650:	e3043044 	movw	r3, #16452	; 0x4044
    8654:	e3403001 	movt	r3, #1
    8658:	e3a02016 	mov	r2, #22
    865c:	e5832000 	str	r2, [r3]
    8660:	e3e00000 	mvn	r0, #0
    8664:	e12fff1e 	bx	lr

00008668 <link>:
    8668:	e3043044 	movw	r3, #16452	; 0x4044
    866c:	e3403001 	movt	r3, #1
    8670:	e3a0201f 	mov	r2, #31
    8674:	e5832000 	str	r2, [r3]
    8678:	e3e00000 	mvn	r0, #0
    867c:	e12fff1e 	bx	lr

00008680 <lseek>:
    8680:	e3a00000 	mov	r0, #0
    8684:	e12fff1e 	bx	lr

00008688 <open>:
    8688:	e3e00000 	mvn	r0, #0
    868c:	e12fff1e 	bx	lr

00008690 <read>:
    8690:	e3a00000 	mov	r0, #0
    8694:	e12fff1e 	bx	lr

00008698 <_sbrk>:
    8698:	e92d4070 	push	{r4, r5, r6, lr}
    869c:	e1a05000 	mov	r5, r0
    86a0:	e30c3000 	movw	r3, #49152	; 0xc000
    86a4:	e3403000 	movt	r3, #0
    86a8:	e5933000 	ldr	r3, [r3]
    86ac:	e3530000 	cmp	r3, #0
    86b0:	030c3000 	movweq	r3, #49152	; 0xc000
    86b4:	03403000 	movteq	r3, #0
    86b8:	03042048 	movweq	r2, #16456	; 0x4048
    86bc:	03402001 	movteq	r2, #1
    86c0:	05832000 	streq	r2, [r3]
    86c4:	e30c3000 	movw	r3, #49152	; 0xc000
    86c8:	e3403000 	movt	r3, #0
    86cc:	e5934000 	ldr	r4, [r3]
    86d0:	e0846000 	add	r6, r4, r0
    86d4:	ebffff0a 	bl	8304 <_get_stack_pointer>
    86d8:	e1560000 	cmp	r6, r0
    86dc:	9a000000 	bls	86e4 <_sbrk+0x4c>
    86e0:	eafffffe 	b	86e0 <_sbrk+0x48>
    86e4:	e30c3000 	movw	r3, #49152	; 0xc000
    86e8:	e3403000 	movt	r3, #0
    86ec:	e5932000 	ldr	r2, [r3]
    86f0:	e0825005 	add	r5, r2, r5
    86f4:	e5835000 	str	r5, [r3]
    86f8:	e1a00004 	mov	r0, r4
    86fc:	e8bd8070 	pop	{r4, r5, r6, pc}

00008700 <stat>:
    8700:	e3a03a02 	mov	r3, #8192	; 0x2000
    8704:	e5813004 	str	r3, [r1, #4]
    8708:	e3a00000 	mov	r0, #0
    870c:	e12fff1e 	bx	lr

00008710 <times>:
    8710:	e3e00000 	mvn	r0, #0
    8714:	e12fff1e 	bx	lr

00008718 <unlink>:
    8718:	e3043044 	movw	r3, #16452	; 0x4044
    871c:	e3403001 	movt	r3, #1
    8720:	e3a02002 	mov	r2, #2
    8724:	e5832000 	str	r2, [r3]
    8728:	e3e00000 	mvn	r0, #0
    872c:	e12fff1e 	bx	lr

00008730 <wait>:
    8730:	e3043044 	movw	r3, #16452	; 0x4044
    8734:	e3403001 	movt	r3, #1
    8738:	e3a0200a 	mov	r2, #10
    873c:	e5832000 	str	r2, [r3]
    8740:	e3e00000 	mvn	r0, #0
    8744:	e12fff1e 	bx	lr

00008748 <outbyte>:
    8748:	e12fff1e 	bx	lr

0000874c <write>:
    874c:	e2520000 	subs	r0, r2, #0
    8750:	d12fff1e 	bxle	lr
    8754:	e3a03000 	mov	r3, #0
    8758:	e2833001 	add	r3, r3, #1
    875c:	e1530000 	cmp	r3, r0
    8760:	1afffffc 	bne	8758 <write+0xc>
    8764:	e12fff1e 	bx	lr

00008768 <arm_timer_get_freq>:
    8768:	e30c3008 	movw	r3, #49160	; 0xc008
    876c:	e3403000 	movt	r3, #0
    8770:	e5930000 	ldr	r0, [r3]
    8774:	e12fff1e 	bx	lr

00008778 <arm_timer_irq_ack>:
    8778:	e3a03a0b 	mov	r3, #45056	; 0xb000
    877c:	e3433f00 	movt	r3, #16128	; 0x3f00
    8780:	e3a02001 	mov	r2, #1
    8784:	e583240c 	str	r2, [r3, #1036]	; 0x40c
    8788:	e12fff1e 	bx	lr

0000878c <arm_timer_set_freq>:
    878c:	e92d4010 	push	{r4, lr}
    8790:	e1a04000 	mov	r4, r0
    8794:	e3a00efa 	mov	r0, #4000	; 0xfa0
    8798:	e1a01004 	mov	r1, r4
    879c:	fa0004ab 	blx	9a50 <__aeabi_idiv>
    87a0:	e3a03a0b 	mov	r3, #45056	; 0xb000
    87a4:	e3433f00 	movt	r3, #16128	; 0x3f00
    87a8:	e5830400 	str	r0, [r3, #1024]	; 0x400
    87ac:	e30c3008 	movw	r3, #49160	; 0xc008
    87b0:	e3403000 	movt	r3, #0
    87b4:	e5834000 	str	r4, [r3]
    87b8:	e8bd8010 	pop	{r4, pc}

000087bc <arm_timer_init>:
    87bc:	e92d4008 	push	{r3, lr}
    87c0:	eb00000b 	bl	87f4 <irq_controller_get>
    87c4:	e5903018 	ldr	r3, [r0, #24]
    87c8:	e3833001 	orr	r3, r3, #1
    87cc:	e5803018 	str	r3, [r0, #24]
    87d0:	e3a03a0b 	mov	r3, #45056	; 0xb000
    87d4:	e3433f00 	movt	r3, #16128	; 0x3f00
    87d8:	e3a020aa 	mov	r2, #170	; 0xaa
    87dc:	e5832408 	str	r2, [r3, #1032]	; 0x408
    87e0:	e8bd8008 	pop	{r3, pc}

000087e4 <get_gpio>:
    87e4:	e3a00000 	mov	r0, #0
    87e8:	e3430f20 	movt	r0, #16160	; 0x3f20
    87ec:	e12fff1e 	bx	lr

000087f0 <gpio_init>:
    87f0:	e12fff1e 	bx	lr

000087f4 <irq_controller_get>:
    87f4:	e3a00cb2 	mov	r0, #45568	; 0xb200
    87f8:	e3430f00 	movt	r0, #16128	; 0x3f00
    87fc:	e12fff1e 	bx	lr

00008800 <reset_vector>:
    8800:	e24ee004 	sub	lr, lr, #4
    8804:	e92d500f 	push	{r0, r1, r2, r3, ip, lr}
    8808:	e30a0818 	movw	r0, #43032	; 0xa818
    880c:	e3400000 	movt	r0, #0
    8810:	eb0000b3 	bl	8ae4 <uart_puts>
    8814:	e8fd900f 	ldm	sp!, {r0, r1, r2, r3, ip, pc}^

00008818 <undefined_instruction_vector>:
    8818:	e92d503f 	push	{r0, r1, r2, r3, r4, r5, ip, lr}
    881c:	e1a0400e 	mov	r4, lr
    8820:	e30a082c 	movw	r0, #43052	; 0xa82c
    8824:	e3400000 	movt	r0, #0
    8828:	eb0000ad 	bl	8ae4 <uart_puts>
    882c:	e1a00004 	mov	r0, r4
    8830:	e3a01010 	mov	r1, #16
    8834:	eb0000db 	bl	8ba8 <uart_put_uint32_t>
    8838:	e30a0b28 	movw	r0, #43816	; 0xab28
    883c:	e3400000 	movt	r0, #0
    8840:	eb0000a7 	bl	8ae4 <uart_puts>
    8844:	e8fd903f 	ldm	sp!, {r0, r1, r2, r3, r4, r5, ip, pc}^

00008848 <software_interrupt_vector_c>:
    8848:	e92d4008 	push	{r3, lr}
    884c:	e6ef0070 	uxtb	r0, r0
    8850:	e3500003 	cmp	r0, #3
    8854:	979ff100 	ldrls	pc, [pc, r0, lsl #2]
    8858:	ea000018 	b	88c0 <software_interrupt_vector_c+0x78>
    885c:	0000886c 	andeq	r8, r0, ip, ror #16
    8860:	00008888 	andeq	r8, r0, r8, lsl #17
    8864:	000088b4 			; <UNDEFINED> instruction: 0x000088b4
    8868:	000088a0 	andeq	r8, r0, r0, lsr #17
    886c:	e1a00001 	mov	r0, r1
    8870:	e1a01002 	mov	r1, r2
    8874:	e5932000 	ldr	r2, [r3]
    8878:	eb0003c6 	bl	9798 <system_send>
    887c:	eb0002f8 	bl	9464 <reschedule>
    8880:	e3a00001 	mov	r0, #1
    8884:	e8bd8008 	pop	{r3, pc}
    8888:	e1a00001 	mov	r0, r1
    888c:	e1a01002 	mov	r1, r2
    8890:	eb0003d3 	bl	97e4 <system_receive>
    8894:	eb0002f2 	bl	9464 <reschedule>
    8898:	e3a00001 	mov	r0, #1
    889c:	e8bd8008 	pop	{r3, pc}
    88a0:	e30a0844 	movw	r0, #43076	; 0xa844
    88a4:	e3400000 	movt	r0, #0
    88a8:	eb00008d 	bl	8ae4 <uart_puts>
    88ac:	e3a00000 	mov	r0, #0
    88b0:	e8bd8008 	pop	{r3, pc}
    88b4:	eb0002ea 	bl	9464 <reschedule>
    88b8:	e3a00001 	mov	r0, #1
    88bc:	e8bd8008 	pop	{r3, pc}
    88c0:	e8bd8008 	pop	{r3, pc}

000088c4 <prefetch_abort_vector_c>:
    88c4:	e92d4038 	push	{r3, r4, r5, lr}
    88c8:	e1a05000 	mov	r5, r0
    88cc:	e1a04001 	mov	r4, r1
    88d0:	e30a0854 	movw	r0, #43092	; 0xa854
    88d4:	e3400000 	movt	r0, #0
    88d8:	eb000081 	bl	8ae4 <uart_puts>
    88dc:	e1a00005 	mov	r0, r5
    88e0:	e3a01010 	mov	r1, #16
    88e4:	eb0000af 	bl	8ba8 <uart_put_uint32_t>
    88e8:	e30a086c 	movw	r0, #43116	; 0xa86c
    88ec:	e3400000 	movt	r0, #0
    88f0:	eb00007b 	bl	8ae4 <uart_puts>
    88f4:	e1a00004 	mov	r0, r4
    88f8:	e3a01010 	mov	r1, #16
    88fc:	eb0000a9 	bl	8ba8 <uart_put_uint32_t>
    8900:	e30a0b28 	movw	r0, #43816	; 0xab28
    8904:	e3400000 	movt	r0, #0
    8908:	eb000075 	bl	8ae4 <uart_puts>
    890c:	e8bd8038 	pop	{r3, r4, r5, pc}

00008910 <data_abort_vector_c>:
    8910:	e92d4038 	push	{r3, r4, r5, lr}
    8914:	e1a05000 	mov	r5, r0
    8918:	e1a04001 	mov	r4, r1
    891c:	e30a087c 	movw	r0, #43132	; 0xa87c
    8920:	e3400000 	movt	r0, #0
    8924:	eb00006e 	bl	8ae4 <uart_puts>
    8928:	e1a00005 	mov	r0, r5
    892c:	e3a01010 	mov	r1, #16
    8930:	eb00009c 	bl	8ba8 <uart_put_uint32_t>
    8934:	e30a086c 	movw	r0, #43116	; 0xa86c
    8938:	e3400000 	movt	r0, #0
    893c:	eb000068 	bl	8ae4 <uart_puts>
    8940:	e1a00004 	mov	r0, r4
    8944:	e3a01010 	mov	r1, #16
    8948:	eb000096 	bl	8ba8 <uart_put_uint32_t>
    894c:	e30a0b28 	movw	r0, #43816	; 0xab28
    8950:	e3400000 	movt	r0, #0
    8954:	eb000062 	bl	8ae4 <uart_puts>
    8958:	e8bd8038 	pop	{r3, r4, r5, pc}

0000895c <interrupt_vector_c>:
    895c:	e92d4008 	push	{r3, lr}
    8960:	e3a03a0b 	mov	r3, #45056	; 0xb000
    8964:	e3433f00 	movt	r3, #16128	; 0x3f00
    8968:	e5933200 	ldr	r3, [r3, #512]	; 0x200
    896c:	e3130001 	tst	r3, #1
    8970:	0a000001 	beq	897c <interrupt_vector_c+0x20>
    8974:	eb000415 	bl	99d0 <time_handler>
    8978:	e8bd8008 	pop	{r3, pc}
    897c:	e3a03a0b 	mov	r3, #45056	; 0xb000
    8980:	e3433f00 	movt	r3, #16128	; 0x3f00
    8984:	e5933208 	ldr	r3, [r3, #520]	; 0x208
    8988:	e3130402 	tst	r3, #33554432	; 0x2000000
    898c:	0a000001 	beq	8998 <interrupt_vector_c+0x3c>
    8990:	eb0000a3 	bl	8c24 <uart_handler>
    8994:	e8bd8008 	pop	{r3, pc}
    8998:	e3a00000 	mov	r0, #0
    899c:	e8bd8008 	pop	{r3, pc}

000089a0 <fast_interrupt_vector>:
    89a0:	e24ee004 	sub	lr, lr, #4
    89a4:	e92d401f 	push	{r0, r1, r2, r3, r4, lr}
    89a8:	e30a0890 	movw	r0, #43152	; 0xa890
    89ac:	e3400000 	movt	r0, #0
    89b0:	eb00004b 	bl	8ae4 <uart_puts>
    89b4:	e8fd801f 	ldm	sp!, {r0, r1, r2, r3, r4, pc}^

000089b8 <_get_yield_val>:
    89b8:	e3a00002 	mov	r0, #2
    89bc:	e12fff1e 	bx	lr

000089c0 <delay>:
    89c0:	e2500001 	subs	r0, r0, #1
    89c4:	1afffffd 	bne	89c0 <delay>
    89c8:	e12fff1e 	bx	lr

000089cc <uart_init>:
    89cc:	e92d4038 	push	{r3, r4, r5, lr}
    89d0:	e3a04a01 	mov	r4, #4096	; 0x1000
    89d4:	e3434f20 	movt	r4, #16160	; 0x3f20
    89d8:	e3a05000 	mov	r5, #0
    89dc:	e5845030 	str	r5, [r4, #48]	; 0x30
    89e0:	ebffff7f 	bl	87e4 <get_gpio>
    89e4:	e5805094 	str	r5, [r0, #148]	; 0x94
    89e8:	e3a00096 	mov	r0, #150	; 0x96
    89ec:	ebfffff3 	bl	89c0 <delay>
    89f0:	ebffff7b 	bl	87e4 <get_gpio>
    89f4:	e3a03903 	mov	r3, #49152	; 0xc000
    89f8:	e5803098 	str	r3, [r0, #152]	; 0x98
    89fc:	e3a00096 	mov	r0, #150	; 0x96
    8a00:	ebffffee 	bl	89c0 <delay>
    8a04:	ebffff76 	bl	87e4 <get_gpio>
    8a08:	e5805094 	str	r5, [r0, #148]	; 0x94
    8a0c:	ebffff74 	bl	87e4 <get_gpio>
    8a10:	e5805098 	str	r5, [r0, #152]	; 0x98
    8a14:	e30037ff 	movw	r3, #2047	; 0x7ff
    8a18:	e5843044 	str	r3, [r4, #68]	; 0x44
    8a1c:	e3a03001 	mov	r3, #1
    8a20:	e5843024 	str	r3, [r4, #36]	; 0x24
    8a24:	e3a03028 	mov	r3, #40	; 0x28
    8a28:	e5843028 	str	r3, [r4, #40]	; 0x28
    8a2c:	e3a03060 	mov	r3, #96	; 0x60
    8a30:	e584302c 	str	r3, [r4, #44]	; 0x2c
    8a34:	e5943034 	ldr	r3, [r4, #52]	; 0x34
    8a38:	e5843034 	str	r3, [r4, #52]	; 0x34
    8a3c:	e5943038 	ldr	r3, [r4, #56]	; 0x38
    8a40:	e3833010 	orr	r3, r3, #16
    8a44:	e5843038 	str	r3, [r4, #56]	; 0x38
    8a48:	ebffff69 	bl	87f4 <irq_controller_get>
    8a4c:	e5903014 	ldr	r3, [r0, #20]
    8a50:	e3833402 	orr	r3, r3, #33554432	; 0x2000000
    8a54:	e5803014 	str	r3, [r0, #20]
    8a58:	e3003301 	movw	r3, #769	; 0x301
    8a5c:	e5843030 	str	r3, [r4, #48]	; 0x30
    8a60:	e8bd8038 	pop	{r3, r4, r5, pc}

00008a64 <uart_get>:
    8a64:	e3a00a01 	mov	r0, #4096	; 0x1000
    8a68:	e3430f20 	movt	r0, #16160	; 0x3f20
    8a6c:	e12fff1e 	bx	lr

00008a70 <uart_putc>:
    8a70:	e3a02a01 	mov	r2, #4096	; 0x1000
    8a74:	e3432f20 	movt	r2, #16160	; 0x3f20
    8a78:	e5923018 	ldr	r3, [r2, #24]
    8a7c:	e3130020 	tst	r3, #32
    8a80:	1afffffc 	bne	8a78 <uart_putc+0x8>
    8a84:	e3a03a01 	mov	r3, #4096	; 0x1000
    8a88:	e3433f20 	movt	r3, #16160	; 0x3f20
    8a8c:	e5830000 	str	r0, [r3]
    8a90:	e12fff1e 	bx	lr

00008a94 <uart_getc>:
    8a94:	e3a02a01 	mov	r2, #4096	; 0x1000
    8a98:	e3432f20 	movt	r2, #16160	; 0x3f20
    8a9c:	e5923018 	ldr	r3, [r2, #24]
    8aa0:	e3130010 	tst	r3, #16
    8aa4:	1afffffc 	bne	8a9c <uart_getc+0x8>
    8aa8:	e3a03a01 	mov	r3, #4096	; 0x1000
    8aac:	e3433f20 	movt	r3, #16160	; 0x3f20
    8ab0:	e5930000 	ldr	r0, [r3]
    8ab4:	e6ef0070 	uxtb	r0, r0
    8ab8:	e12fff1e 	bx	lr

00008abc <uart_write>:
    8abc:	e92d4038 	push	{r3, r4, r5, lr}
    8ac0:	e3510000 	cmp	r1, #0
    8ac4:	08bd8038 	popeq	{r3, r4, r5, pc}
    8ac8:	e1a04000 	mov	r4, r0
    8acc:	e0805001 	add	r5, r0, r1
    8ad0:	e4d40001 	ldrb	r0, [r4], #1
    8ad4:	ebffffe5 	bl	8a70 <uart_putc>
    8ad8:	e1540005 	cmp	r4, r5
    8adc:	1afffffb 	bne	8ad0 <uart_write+0x14>
    8ae0:	e8bd8038 	pop	{r3, r4, r5, pc}

00008ae4 <uart_puts>:
    8ae4:	e92d4010 	push	{r4, lr}
    8ae8:	e1a04000 	mov	r4, r0
    8aec:	fa00066f 	blx	a4b0 <strlen>
    8af0:	e1a01000 	mov	r1, r0
    8af4:	e1a00004 	mov	r0, r4
    8af8:	ebffffef 	bl	8abc <uart_write>
    8afc:	e8bd8010 	pop	{r4, pc}

00008b00 <uart_itoa>:
    8b00:	e92d41f0 	push	{r4, r5, r6, r7, r8, lr}
    8b04:	e1a04000 	mov	r4, r0
    8b08:	e1a07001 	mov	r7, r1
    8b0c:	e1a05002 	mov	r5, r2
    8b10:	e2423002 	sub	r3, r2, #2
    8b14:	e3530022 	cmp	r3, #34	; 0x22
    8b18:	83a03000 	movhi	r3, #0
    8b1c:	85c13000 	strbhi	r3, [r1]
    8b20:	8a00001e 	bhi	8ba0 <uart_itoa+0xa0>
    8b24:	e1a06001 	mov	r6, r1
    8b28:	e30a8898 	movw	r8, #43160	; 0xa898
    8b2c:	e3408000 	movt	r8, #0
    8b30:	e1a00004 	mov	r0, r4
    8b34:	e1a01005 	mov	r1, r5
    8b38:	fa0003c4 	blx	9a50 <__aeabi_idiv>
    8b3c:	e1a03006 	mov	r3, r6
    8b40:	e0624095 	mls	r2, r5, r0, r4
    8b44:	e0882002 	add	r2, r8, r2
    8b48:	e5d22023 	ldrb	r2, [r2, #35]	; 0x23
    8b4c:	e4c32001 	strb	r2, [r3], #1
    8b50:	e3500000 	cmp	r0, #0
    8b54:	11a04000 	movne	r4, r0
    8b58:	11a06003 	movne	r6, r3
    8b5c:	1afffff3 	bne	8b30 <uart_itoa+0x30>
    8b60:	e3540000 	cmp	r4, #0
    8b64:	b2863002 	addlt	r3, r6, #2
    8b68:	b3a0202d 	movlt	r2, #45	; 0x2d
    8b6c:	b5c62001 	strblt	r2, [r6, #1]
    8b70:	e2432001 	sub	r2, r3, #1
    8b74:	e3a01000 	mov	r1, #0
    8b78:	e5c31000 	strb	r1, [r3]
    8b7c:	e1570002 	cmp	r7, r2
    8b80:	2a000006 	bcs	8ba0 <uart_itoa+0xa0>
    8b84:	e1a03007 	mov	r3, r7
    8b88:	e5d21000 	ldrb	r1, [r2]
    8b8c:	e5d30000 	ldrb	r0, [r3]
    8b90:	e4420001 	strb	r0, [r2], #-1
    8b94:	e4c31001 	strb	r1, [r3], #1
    8b98:	e1520003 	cmp	r2, r3
    8b9c:	8afffff9 	bhi	8b88 <uart_itoa+0x88>
    8ba0:	e1a00007 	mov	r0, r7
    8ba4:	e8bd81f0 	pop	{r4, r5, r6, r7, r8, pc}

00008ba8 <uart_put_uint32_t>:
    8ba8:	e92d4030 	push	{r4, r5, lr}
    8bac:	e24dd02c 	sub	sp, sp, #44	; 0x2c
    8bb0:	e1a05000 	mov	r5, r0
    8bb4:	e1a04001 	mov	r4, r1
    8bb8:	e3510010 	cmp	r1, #16
    8bbc:	1a000003 	bne	8bd0 <uart_put_uint32_t+0x28>
    8bc0:	e30a08e0 	movw	r0, #43232	; 0xa8e0
    8bc4:	e3400000 	movt	r0, #0
    8bc8:	ebffffc5 	bl	8ae4 <uart_puts>
    8bcc:	ea000004 	b	8be4 <uart_put_uint32_t+0x3c>
    8bd0:	e3510002 	cmp	r1, #2
    8bd4:	1a000002 	bne	8be4 <uart_put_uint32_t+0x3c>
    8bd8:	e30a08e4 	movw	r0, #43236	; 0xa8e4
    8bdc:	e3400000 	movt	r0, #0
    8be0:	ebffffbf 	bl	8ae4 <uart_puts>
    8be4:	e1a00005 	mov	r0, r5
    8be8:	e28d1004 	add	r1, sp, #4
    8bec:	e1a02004 	mov	r2, r4
    8bf0:	ebffffc2 	bl	8b00 <uart_itoa>
    8bf4:	ebffffba 	bl	8ae4 <uart_puts>
    8bf8:	e28dd02c 	add	sp, sp, #44	; 0x2c
    8bfc:	e8bd8030 	pop	{r4, r5, pc}

00008c00 <print_alot>:
    8c00:	e92d4038 	push	{r3, r4, r5, lr}
    8c04:	e3a04014 	mov	r4, #20
    8c08:	e30a58e8 	movw	r5, #43240	; 0xa8e8
    8c0c:	e3405000 	movt	r5, #0
    8c10:	e1a00005 	mov	r0, r5
    8c14:	ebffffb2 	bl	8ae4 <uart_puts>
    8c18:	e2544001 	subs	r4, r4, #1
    8c1c:	1afffffb 	bne	8c10 <print_alot+0x10>
    8c20:	e8bd8038 	pop	{r3, r4, r5, pc}

00008c24 <uart_handler>:
    8c24:	e92d4008 	push	{r3, lr}
    8c28:	e30c300c 	movw	r3, #49164	; 0xc00c
    8c2c:	e3403000 	movt	r3, #0
    8c30:	e5933000 	ldr	r3, [r3]
    8c34:	e3530000 	cmp	r3, #0
    8c38:	0a000007 	beq	8c5c <uart_handler+0x38>
    8c3c:	ebfffee8 	bl	87e4 <get_gpio>
    8c40:	e3a03902 	mov	r3, #32768	; 0x8000
    8c44:	e5803020 	str	r3, [r0, #32]
    8c48:	e30c300c 	movw	r3, #49164	; 0xc00c
    8c4c:	e3403000 	movt	r3, #0
    8c50:	e3a02000 	mov	r2, #0
    8c54:	e5832000 	str	r2, [r3]
    8c58:	ea000006 	b	8c78 <uart_handler+0x54>
    8c5c:	ebfffee0 	bl	87e4 <get_gpio>
    8c60:	e3a03902 	mov	r3, #32768	; 0x8000
    8c64:	e580302c 	str	r3, [r0, #44]	; 0x2c
    8c68:	e30c300c 	movw	r3, #49164	; 0xc00c
    8c6c:	e3403000 	movt	r3, #0
    8c70:	e3a02001 	mov	r2, #1
    8c74:	e5832000 	str	r2, [r3]
    8c78:	e3a00000 	mov	r0, #0
    8c7c:	e8bd8008 	pop	{r3, pc}

00008c80 <cpu_control_config>:
    8c80:	e3013c27 	movw	r3, #7207	; 0x1c27
    8c84:	ee013f10 	mcr	15, 0, r3, cr1, cr0, {0}
    8c88:	e12fff1e 	bx	lr

00008c8c <cpu_set_irq_vectors_high>:
    8c8c:	ee113f10 	mrc	15, 0, r3, cr1, cr0, {0}
    8c90:	e3833a02 	orr	r3, r3, #8192	; 0x2000
    8c94:	ee113f10 	mrc	15, 0, r3, cr1, cr0, {0}
    8c98:	e12fff1e 	bx	lr

00008c9c <cpu_mode_print>:
    8c9c:	e92d4008 	push	{r3, lr}
    8ca0:	ebfffda5 	bl	833c <_get_cpsr>
    8ca4:	e200001f 	and	r0, r0, #31
    8ca8:	e2400010 	sub	r0, r0, #16
    8cac:	e350000f 	cmp	r0, #15
    8cb0:	979ff100 	ldrls	pc, [pc, r0, lsl #2]
    8cb4:	ea000032 	b	8d84 <cpu_mode_print+0xe8>
    8cb8:	00008cf8 	strdeq	r8, [r0], -r8	; <UNPREDICTABLE>
    8cbc:	00008d0c 	andeq	r8, r0, ip, lsl #26
    8cc0:	00008d20 	andeq	r8, r0, r0, lsr #26
    8cc4:	00008d34 	andeq	r8, r0, r4, lsr sp
    8cc8:	00008d84 	andeq	r8, r0, r4, lsl #27
    8ccc:	00008d84 	andeq	r8, r0, r4, lsl #27
    8cd0:	00008d84 	andeq	r8, r0, r4, lsl #27
    8cd4:	00008d48 	andeq	r8, r0, r8, asr #26
    8cd8:	00008d84 	andeq	r8, r0, r4, lsl #27
    8cdc:	00008d84 	andeq	r8, r0, r4, lsl #27
    8ce0:	00008d84 	andeq	r8, r0, r4, lsl #27
    8ce4:	00008d5c 	andeq	r8, r0, ip, asr sp
    8ce8:	00008d84 	andeq	r8, r0, r4, lsl #27
    8cec:	00008d84 	andeq	r8, r0, r4, lsl #27
    8cf0:	00008d84 	andeq	r8, r0, r4, lsl #27
    8cf4:	00008d70 	andeq	r8, r0, r0, ror sp
    8cf8:	e30a092c 	movw	r0, #43308	; 0xa92c
    8cfc:	e3400000 	movt	r0, #0
    8d00:	ebffff77 	bl	8ae4 <uart_puts>
    8d04:	e3a00010 	mov	r0, #16
    8d08:	e8bd8008 	pop	{r3, pc}
    8d0c:	e30a0940 	movw	r0, #43328	; 0xa940
    8d10:	e3400000 	movt	r0, #0
    8d14:	ebffff72 	bl	8ae4 <uart_puts>
    8d18:	e3a00011 	mov	r0, #17
    8d1c:	e8bd8008 	pop	{r3, pc}
    8d20:	e30a0950 	movw	r0, #43344	; 0xa950
    8d24:	e3400000 	movt	r0, #0
    8d28:	ebffff6d 	bl	8ae4 <uart_puts>
    8d2c:	e3a00012 	mov	r0, #18
    8d30:	e8bd8008 	pop	{r3, pc}
    8d34:	e30a0960 	movw	r0, #43360	; 0xa960
    8d38:	e3400000 	movt	r0, #0
    8d3c:	ebffff68 	bl	8ae4 <uart_puts>
    8d40:	e3a00013 	mov	r0, #19
    8d44:	e8bd8008 	pop	{r3, pc}
    8d48:	e30a0970 	movw	r0, #43376	; 0xa970
    8d4c:	e3400000 	movt	r0, #0
    8d50:	ebffff63 	bl	8ae4 <uart_puts>
    8d54:	e3a00017 	mov	r0, #23
    8d58:	e8bd8008 	pop	{r3, pc}
    8d5c:	e30a0984 	movw	r0, #43396	; 0xa984
    8d60:	e3400000 	movt	r0, #0
    8d64:	ebffff5e 	bl	8ae4 <uart_puts>
    8d68:	e3a0001b 	mov	r0, #27
    8d6c:	e8bd8008 	pop	{r3, pc}
    8d70:	e30a099c 	movw	r0, #43420	; 0xa99c
    8d74:	e3400000 	movt	r0, #0
    8d78:	ebffff59 	bl	8ae4 <uart_puts>
    8d7c:	e3a0001f 	mov	r0, #31
    8d80:	e8bd8008 	pop	{r3, pc}
    8d84:	e8bd8008 	pop	{r3, pc}

00008d88 <prog1>:
    8d88:	e92d4ff0 	push	{r4, r5, r6, r7, r8, r9, sl, fp, lr}
    8d8c:	e24dd00c 	sub	sp, sp, #12
    8d90:	e3a03000 	mov	r3, #0
    8d94:	e58d3004 	str	r3, [sp, #4]
    8d98:	e30a09b0 	movw	r0, #43440	; 0xa9b0
    8d9c:	e3400000 	movt	r0, #0
    8da0:	ebffff4f 	bl	8ae4 <uart_puts>
    8da4:	e3a04001 	mov	r4, #1
    8da8:	e30c7a6b 	movw	r7, #51819	; 0xca6b
    8dac:	e3467b5f 	movt	r7, #27487	; 0x6b5f
    8db0:	e3096680 	movw	r6, #38528	; 0x9680
    8db4:	e3406098 	movt	r6, #152	; 0x98
    8db8:	e30a99c8 	movw	r9, #43464	; 0xa9c8
    8dbc:	e3409000 	movt	r9, #0
    8dc0:	e3a0b00a 	mov	fp, #10
    8dc4:	e30a8b28 	movw	r8, #43816	; 0xab28
    8dc8:	e3408000 	movt	r8, #0
    8dcc:	e3a0a002 	mov	sl, #2
    8dd0:	e2844001 	add	r4, r4, #1
    8dd4:	e0832497 	umull	r2, r3, r7, r4
    8dd8:	e1a03b23 	lsr	r3, r3, #22
    8ddc:	e0634396 	mls	r3, r6, r3, r4
    8de0:	e3530000 	cmp	r3, #0
    8de4:	1afffff9 	bne	8dd0 <prog1+0x48>
    8de8:	e1a00009 	mov	r0, r9
    8dec:	ebffff3c 	bl	8ae4 <uart_puts>
    8df0:	e59d0004 	ldr	r0, [sp, #4]
    8df4:	e2800001 	add	r0, r0, #1
    8df8:	e28d5008 	add	r5, sp, #8
    8dfc:	e5250004 	str	r0, [r5, #-4]!
    8e00:	e1a0100b 	mov	r1, fp
    8e04:	ebffff67 	bl	8ba8 <uart_put_uint32_t>
    8e08:	e1a00008 	mov	r0, r8
    8e0c:	ebffff34 	bl	8ae4 <uart_puts>
    8e10:	e1a0000a 	mov	r0, sl
    8e14:	e1a01005 	mov	r1, r5
    8e18:	e3a02004 	mov	r2, #4
    8e1c:	eb000240 	bl	9724 <ipc_send>
    8e20:	eaffffea 	b	8dd0 <prog1+0x48>

00008e24 <prog2>:
    8e24:	e92d47f0 	push	{r4, r5, r6, r7, r8, r9, sl, lr}
    8e28:	e24dd008 	sub	sp, sp, #8
    8e2c:	e28d9008 	add	r9, sp, #8
    8e30:	e3a03000 	mov	r3, #0
    8e34:	e5293004 	str	r3, [r9, #-4]!
    8e38:	e30a09d8 	movw	r0, #43480	; 0xa9d8
    8e3c:	e3400000 	movt	r0, #0
    8e40:	ebffff27 	bl	8ae4 <uart_puts>
    8e44:	e30a89f0 	movw	r8, #43504	; 0xa9f0
    8e48:	e3408000 	movt	r8, #0
    8e4c:	e3a0a004 	mov	sl, #4
    8e50:	e30a7a0c 	movw	r7, #43532	; 0xaa0c
    8e54:	e3407000 	movt	r7, #0
    8e58:	e30a6a1c 	movw	r6, #43548	; 0xaa1c
    8e5c:	e3406000 	movt	r6, #0
    8e60:	e30a5b28 	movw	r5, #43816	; 0xab28
    8e64:	e3405000 	movt	r5, #0
    8e68:	e1a00008 	mov	r0, r8
    8e6c:	ebffff1c 	bl	8ae4 <uart_puts>
    8e70:	e1a00009 	mov	r0, r9
    8e74:	e1a0100a 	mov	r1, sl
    8e78:	eb000232 	bl	9748 <ipc_receive>
    8e7c:	e1a04000 	mov	r4, r0
    8e80:	e1a00007 	mov	r0, r7
    8e84:	ebffff16 	bl	8ae4 <uart_puts>
    8e88:	e59d0004 	ldr	r0, [sp, #4]
    8e8c:	e3a0100a 	mov	r1, #10
    8e90:	ebffff44 	bl	8ba8 <uart_put_uint32_t>
    8e94:	e1a00006 	mov	r0, r6
    8e98:	ebffff11 	bl	8ae4 <uart_puts>
    8e9c:	e1a00004 	mov	r0, r4
    8ea0:	e3a0100a 	mov	r1, #10
    8ea4:	ebffff3f 	bl	8ba8 <uart_put_uint32_t>
    8ea8:	e1a00005 	mov	r0, r5
    8eac:	ebffff0c 	bl	8ae4 <uart_puts>
    8eb0:	eaffffec 	b	8e68 <prog2+0x44>

00008eb4 <prog3>:
    8eb4:	e92d4010 	push	{r4, lr}
    8eb8:	e24dd008 	sub	sp, sp, #8
    8ebc:	e3a03000 	mov	r3, #0
    8ec0:	e58d3004 	str	r3, [sp, #4]
    8ec4:	e30a4a24 	movw	r4, #43556	; 0xaa24
    8ec8:	e3404000 	movt	r4, #0
    8ecc:	e59d3004 	ldr	r3, [sp, #4]
    8ed0:	e2833001 	add	r3, r3, #1
    8ed4:	e58d3004 	str	r3, [sp, #4]
    8ed8:	e1a00004 	mov	r0, r4
    8edc:	ebffff00 	bl	8ae4 <uart_puts>
    8ee0:	eafffff9 	b	8ecc <prog3+0x18>

00008ee4 <pcb_id_compare>:
    8ee4:	e1500001 	cmp	r0, r1
    8ee8:	13a00000 	movne	r0, #0
    8eec:	03a00001 	moveq	r0, #1
    8ef0:	e12fff1e 	bx	lr

00008ef4 <pcb_insert>:
    8ef4:	e24dd010 	sub	sp, sp, #16
    8ef8:	e92d4010 	push	{r4, lr}
    8efc:	e24dde22 	sub	sp, sp, #544	; 0x220
    8f00:	e28dcf8a 	add	ip, sp, #552	; 0x228
    8f04:	e88c000f 	stm	ip, {r0, r1, r2, r3}
    8f08:	e3a04e22 	mov	r4, #544	; 0x220
    8f0c:	e1a0000d 	mov	r0, sp
    8f10:	e1a0100c 	mov	r1, ip
    8f14:	e1a02004 	mov	r2, r4
    8f18:	fa0004db 	blx	a28c <memcpy>
    8f1c:	e1a00004 	mov	r0, r4
    8f20:	fa000377 	blx	9d04 <malloc>
    8f24:	e2504000 	subs	r4, r0, #0
    8f28:	1a000004 	bne	8f40 <pcb_insert+0x4c>
    8f2c:	e30a0a5c 	movw	r0, #43612	; 0xaa5c
    8f30:	e3400000 	movt	r0, #0
    8f34:	ebfffeea 	bl	8ae4 <uart_puts>
    8f38:	e3e00000 	mvn	r0, #0
    8f3c:	ea000015 	b	8f98 <pcb_insert+0xa4>
    8f40:	e1a00004 	mov	r0, r4
    8f44:	e1a0100d 	mov	r1, sp
    8f48:	e3a02e22 	mov	r2, #544	; 0x220
    8f4c:	fa0004ce 	blx	a28c <memcpy>
    8f50:	e3a03000 	mov	r3, #0
    8f54:	e5843018 	str	r3, [r4, #24]
    8f58:	e5843014 	str	r3, [r4, #20]
    8f5c:	e5843010 	str	r3, [r4, #16]
    8f60:	e30c3010 	movw	r3, #49168	; 0xc010
    8f64:	e3403000 	movt	r3, #0
    8f68:	e5933000 	ldr	r3, [r3]
    8f6c:	e3530000 	cmp	r3, #0
    8f70:	030c3010 	movweq	r3, #49168	; 0xc010
    8f74:	03403000 	movteq	r3, #0
    8f78:	05834000 	streq	r4, [r3]
    8f7c:	05834004 	streq	r4, [r3, #4]
    8f80:	15834014 	strne	r4, [r3, #20]
    8f84:	15843010 	strne	r3, [r4, #16]
    8f88:	130c3010 	movwne	r3, #49168	; 0xc010
    8f8c:	13403000 	movtne	r3, #0
    8f90:	15834000 	strne	r4, [r3]
    8f94:	e3a00001 	mov	r0, #1
    8f98:	e28dde22 	add	sp, sp, #544	; 0x220
    8f9c:	e8bd4010 	pop	{r4, lr}
    8fa0:	e28dd010 	add	sp, sp, #16
    8fa4:	e12fff1e 	bx	lr

00008fa8 <pcb_get>:
    8fa8:	e30c3010 	movw	r3, #49168	; 0xc010
    8fac:	e3403000 	movt	r3, #0
    8fb0:	e5933000 	ldr	r3, [r3]
    8fb4:	e3530000 	cmp	r3, #0
    8fb8:	0a000008 	beq	8fe0 <pcb_get+0x38>
    8fbc:	ea000002 	b	8fcc <pcb_get+0x24>
    8fc0:	e5933010 	ldr	r3, [r3, #16]
    8fc4:	e3530000 	cmp	r3, #0
    8fc8:	0a000006 	beq	8fe8 <pcb_get+0x40>
    8fcc:	e5932000 	ldr	r2, [r3]
    8fd0:	e1520000 	cmp	r2, r0
    8fd4:	1afffff9 	bne	8fc0 <pcb_get+0x18>
    8fd8:	e1a00003 	mov	r0, r3
    8fdc:	e12fff1e 	bx	lr
    8fe0:	e3a00000 	mov	r0, #0
    8fe4:	e12fff1e 	bx	lr
    8fe8:	e3a00000 	mov	r0, #0
    8fec:	e12fff1e 	bx	lr

00008ff0 <save_stack_ptr>:
    8ff0:	e92d4010 	push	{r4, lr}
    8ff4:	e1a04001 	mov	r4, r1
    8ff8:	ebffffea 	bl	8fa8 <pcb_get>
    8ffc:	e3500000 	cmp	r0, #0
    9000:	1580400c 	strne	r4, [r0, #12]
    9004:	18bd8010 	popne	{r4, pc}
    9008:	e30a0a74 	movw	r0, #43636	; 0xaa74
    900c:	e3400000 	movt	r0, #0
    9010:	ebfffeb3 	bl	8ae4 <uart_puts>
    9014:	e8bd8010 	pop	{r4, pc}

00009018 <pcb_print>:
    9018:	e92d4070 	push	{r4, r5, r6, lr}
    901c:	e30c3010 	movw	r3, #49168	; 0xc010
    9020:	e3403000 	movt	r3, #0
    9024:	e5934000 	ldr	r4, [r3]
    9028:	e30a0a98 	movw	r0, #43672	; 0xaa98
    902c:	e3400000 	movt	r0, #0
    9030:	ebfffeab 	bl	8ae4 <uart_puts>
    9034:	e3540000 	cmp	r4, #0
    9038:	0a00000a 	beq	9068 <pcb_print+0x50>
    903c:	e3a0600a 	mov	r6, #10
    9040:	e30a5aac 	movw	r5, #43692	; 0xaaac
    9044:	e3405000 	movt	r5, #0
    9048:	e5940000 	ldr	r0, [r4]
    904c:	e1a01006 	mov	r1, r6
    9050:	ebfffed4 	bl	8ba8 <uart_put_uint32_t>
    9054:	e1a00005 	mov	r0, r5
    9058:	ebfffea1 	bl	8ae4 <uart_puts>
    905c:	e5944010 	ldr	r4, [r4, #16]
    9060:	e3540000 	cmp	r4, #0
    9064:	1afffff7 	bne	9048 <pcb_print+0x30>
    9068:	e30a0b28 	movw	r0, #43816	; 0xab28
    906c:	e3400000 	movt	r0, #0
    9070:	ebfffe9b 	bl	8ae4 <uart_puts>
    9074:	e8bd8070 	pop	{r4, r5, r6, pc}

00009078 <pcb_remove>:
    9078:	e92d4038 	push	{r3, r4, r5, lr}
    907c:	e30c3010 	movw	r3, #49168	; 0xc010
    9080:	e3403000 	movt	r3, #0
    9084:	e5931000 	ldr	r1, [r3]
    9088:	e3510000 	cmp	r1, #0
    908c:	0a000035 	beq	9168 <pcb_remove+0xf0>
    9090:	e1a03001 	mov	r3, r1
    9094:	ea000002 	b	90a4 <pcb_remove+0x2c>
    9098:	e5933010 	ldr	r3, [r3, #16]
    909c:	e3530000 	cmp	r3, #0
    90a0:	0a000032 	beq	9170 <pcb_remove+0xf8>
    90a4:	e5932000 	ldr	r2, [r3]
    90a8:	e1520000 	cmp	r2, r0
    90ac:	1afffff9 	bne	9098 <pcb_remove+0x20>
    90b0:	e30c2010 	movw	r2, #49168	; 0xc010
    90b4:	e3402000 	movt	r2, #0
    90b8:	e5922004 	ldr	r2, [r2, #4]
    90bc:	e1510002 	cmp	r1, r2
    90c0:	1a000008 	bne	90e8 <pcb_remove+0x70>
    90c4:	e1a00003 	mov	r0, r3
    90c8:	fa000311 	blx	9d14 <free>
    90cc:	e30c3010 	movw	r3, #49168	; 0xc010
    90d0:	e3403000 	movt	r3, #0
    90d4:	e3a02000 	mov	r2, #0
    90d8:	e5832000 	str	r2, [r3]
    90dc:	e5832004 	str	r2, [r3, #4]
    90e0:	e3a00001 	mov	r0, #1
    90e4:	e8bd8038 	pop	{r3, r4, r5, pc}
    90e8:	e1530001 	cmp	r3, r1
    90ec:	1a000009 	bne	9118 <pcb_remove+0xa0>
    90f0:	e5934010 	ldr	r4, [r3, #16]
    90f4:	e1a00003 	mov	r0, r3
    90f8:	fa000305 	blx	9d14 <free>
    90fc:	e30c3010 	movw	r3, #49168	; 0xc010
    9100:	e3403000 	movt	r3, #0
    9104:	e5834000 	str	r4, [r3]
    9108:	e3a03000 	mov	r3, #0
    910c:	e5843014 	str	r3, [r4, #20]
    9110:	e3a00001 	mov	r0, #1
    9114:	e8bd8038 	pop	{r3, r4, r5, pc}
    9118:	e1530002 	cmp	r3, r2
    911c:	1a000009 	bne	9148 <pcb_remove+0xd0>
    9120:	e5934014 	ldr	r4, [r3, #20]
    9124:	e1a00003 	mov	r0, r3
    9128:	fa0002f9 	blx	9d14 <free>
    912c:	e30c3010 	movw	r3, #49168	; 0xc010
    9130:	e3403000 	movt	r3, #0
    9134:	e5834004 	str	r4, [r3, #4]
    9138:	e3a03000 	mov	r3, #0
    913c:	e5843010 	str	r3, [r4, #16]
    9140:	e3a00001 	mov	r0, #1
    9144:	e8bd8038 	pop	{r3, r4, r5, pc}
    9148:	e5935014 	ldr	r5, [r3, #20]
    914c:	e5934010 	ldr	r4, [r3, #16]
    9150:	e5940014 	ldr	r0, [r4, #20]
    9154:	fa0002ee 	blx	9d14 <free>
    9158:	e5854010 	str	r4, [r5, #16]
    915c:	e5845014 	str	r5, [r4, #20]
    9160:	e3a00001 	mov	r0, #1
    9164:	e8bd8038 	pop	{r3, r4, r5, pc}
    9168:	e3e00000 	mvn	r0, #0
    916c:	e8bd8038 	pop	{r3, r4, r5, pc}
    9170:	e3e00000 	mvn	r0, #0
    9174:	e8bd8038 	pop	{r3, r4, r5, pc}

00009178 <thread_register>:
    9178:	e92d40f0 	push	{r4, r5, r6, r7, lr}
    917c:	e24dde43 	sub	sp, sp, #1072	; 0x430
    9180:	e24dd004 	sub	sp, sp, #4
    9184:	e1a05000 	mov	r5, r0
    9188:	e1a06001 	mov	r6, r1
    918c:	e1a04002 	mov	r4, r2
    9190:	e1a07003 	mov	r7, r3
    9194:	e28d0e21 	add	r0, sp, #528	; 0x210
    9198:	e3a01000 	mov	r1, #0
    919c:	e3a02e22 	mov	r2, #544	; 0x220
    91a0:	fa000463 	blx	a334 <memset>
    91a4:	e58d7210 	str	r7, [sp, #528]	; 0x210
    91a8:	e3a03001 	mov	r3, #1
    91ac:	e5cd3214 	strb	r3, [sp, #532]	; 0x214
    91b0:	e58d6218 	str	r6, [sp, #536]	; 0x218
    91b4:	e1a00004 	mov	r0, r4
    91b8:	fa0002d1 	blx	9d04 <malloc>
    91bc:	e3500000 	cmp	r0, #0
    91c0:	1a000004 	bne	91d8 <thread_register+0x60>
    91c4:	e30a0ab0 	movw	r0, #43696	; 0xaab0
    91c8:	e3400000 	movt	r0, #0
    91cc:	ebfffe44 	bl	8ae4 <uart_puts>
    91d0:	e3e00000 	mvn	r0, #0
    91d4:	ea00001c 	b	924c <thread_register+0xd4>
    91d8:	e0800004 	add	r0, r0, r4
    91dc:	e1a01005 	mov	r1, r5
    91e0:	e5dd2448 	ldrb	r2, [sp, #1096]	; 0x448
    91e4:	ebfffc5c 	bl	835c <_init_thr_stack>
    91e8:	e1a04000 	mov	r4, r0
    91ec:	e58d021c 	str	r0, [sp, #540]	; 0x21c
    91f0:	e1a0000d 	mov	r0, sp
    91f4:	e28d1e22 	add	r1, sp, #544	; 0x220
    91f8:	e3a02e21 	mov	r2, #528	; 0x210
    91fc:	fa000422 	blx	a28c <memcpy>
    9200:	e28d3e21 	add	r3, sp, #528	; 0x210
    9204:	e893000f 	ldm	r3, {r0, r1, r2, r3}
    9208:	ebffff39 	bl	8ef4 <pcb_insert>
    920c:	e30a0ad4 	movw	r0, #43732	; 0xaad4
    9210:	e3400000 	movt	r0, #0
    9214:	ebfffe32 	bl	8ae4 <uart_puts>
    9218:	e1a00004 	mov	r0, r4
    921c:	e3a01010 	mov	r1, #16
    9220:	ebfffe60 	bl	8ba8 <uart_put_uint32_t>
    9224:	e30a0af0 	movw	r0, #43760	; 0xaaf0
    9228:	e3400000 	movt	r0, #0
    922c:	ebfffe2c 	bl	8ae4 <uart_puts>
    9230:	e1a00005 	mov	r0, r5
    9234:	e3a01010 	mov	r1, #16
    9238:	ebfffe5a 	bl	8ba8 <uart_put_uint32_t>
    923c:	e30a0b28 	movw	r0, #43816	; 0xab28
    9240:	e3400000 	movt	r0, #0
    9244:	ebfffe26 	bl	8ae4 <uart_puts>
    9248:	e3a00001 	mov	r0, #1
    924c:	e28dde43 	add	sp, sp, #1072	; 0x430
    9250:	e28dd004 	add	sp, sp, #4
    9254:	e8bd80f0 	pop	{r4, r5, r6, r7, pc}

00009258 <thread_start>:
    9258:	e92d4010 	push	{r4, lr}
    925c:	e1a04000 	mov	r4, r0
    9260:	ebffff50 	bl	8fa8 <pcb_get>
    9264:	e3500000 	cmp	r0, #0
    9268:	1a000004 	bne	9280 <thread_start+0x28>
    926c:	e30a0b08 	movw	r0, #43784	; 0xab08
    9270:	e3400000 	movt	r0, #0
    9274:	ebfffe1a 	bl	8ae4 <uart_puts>
    9278:	e3e00000 	mvn	r0, #0
    927c:	e8bd8010 	pop	{r4, pc}
    9280:	e1a00004 	mov	r0, r4
    9284:	eb00003a 	bl	9374 <scheduler_enqueue>
    9288:	e8bd8010 	pop	{r4, pc}

0000928c <init_pri_array>:
    928c:	e3a02000 	mov	r2, #0
    9290:	e30c0018 	movw	r0, #49176	; 0xc018
    9294:	e3400000 	movt	r0, #0
    9298:	e1a01002 	mov	r1, r2
    929c:	e1a03000 	mov	r3, r0
    92a0:	e7a31002 	str	r1, [r3, r2]!
    92a4:	e5831004 	str	r1, [r3, #4]
    92a8:	e2822008 	add	r2, r2, #8
    92ac:	e3520c02 	cmp	r2, #512	; 0x200
    92b0:	1afffff9 	bne	929c <init_pri_array+0x10>
    92b4:	e12fff1e 	bx	lr

000092b8 <priority_print_list>:
    92b8:	e92d4ff0 	push	{r4, r5, r6, r7, r8, r9, sl, fp, lr}
    92bc:	e24dd00c 	sub	sp, sp, #12
    92c0:	e30a0b14 	movw	r0, #43796	; 0xab14
    92c4:	e3400000 	movt	r0, #0
    92c8:	ebfffe05 	bl	8ae4 <uart_puts>
    92cc:	e30c9018 	movw	r9, #49176	; 0xc018
    92d0:	e3409000 	movt	r9, #0
    92d4:	e3a0803f 	mov	r8, #63	; 0x3f
    92d8:	e30abb2c 	movw	fp, #43820	; 0xab2c
    92dc:	e340b000 	movt	fp, #0
    92e0:	e3a0600a 	mov	r6, #10
    92e4:	e30aab3c 	movw	sl, #43836	; 0xab3c
    92e8:	e340a000 	movt	sl, #0
    92ec:	e30a7aac 	movw	r7, #43692	; 0xaaac
    92f0:	e3407000 	movt	r7, #0
    92f4:	e30a3b28 	movw	r3, #43816	; 0xab28
    92f8:	e3403000 	movt	r3, #0
    92fc:	e58d3004 	str	r3, [sp, #4]
    9300:	e59941f8 	ldr	r4, [r9, #504]	; 0x1f8
    9304:	e3540000 	cmp	r4, #0
    9308:	0a000013 	beq	935c <priority_print_list+0xa4>
    930c:	e1a0000b 	mov	r0, fp
    9310:	ebfffdf3 	bl	8ae4 <uart_puts>
    9314:	e1a00008 	mov	r0, r8
    9318:	e1a01006 	mov	r1, r6
    931c:	ebfffe21 	bl	8ba8 <uart_put_uint32_t>
    9320:	e1a0000a 	mov	r0, sl
    9324:	ebfffdee 	bl	8ae4 <uart_puts>
    9328:	e3a0500c 	mov	r5, #12
    932c:	e5940000 	ldr	r0, [r4]
    9330:	e1a01006 	mov	r1, r6
    9334:	ebfffe1b 	bl	8ba8 <uart_put_uint32_t>
    9338:	e1a00007 	mov	r0, r7
    933c:	ebfffde8 	bl	8ae4 <uart_puts>
    9340:	e5944004 	ldr	r4, [r4, #4]
    9344:	e3540000 	cmp	r4, #0
    9348:	0a000001 	beq	9354 <priority_print_list+0x9c>
    934c:	e2555001 	subs	r5, r5, #1
    9350:	1afffff5 	bne	932c <priority_print_list+0x74>
    9354:	e59d0004 	ldr	r0, [sp, #4]
    9358:	ebfffde1 	bl	8ae4 <uart_puts>
    935c:	e2488001 	sub	r8, r8, #1
    9360:	e2499008 	sub	r9, r9, #8
    9364:	e3780001 	cmn	r8, #1
    9368:	1affffe4 	bne	9300 <priority_print_list+0x48>
    936c:	e28dd00c 	add	sp, sp, #12
    9370:	e8bd8ff0 	pop	{r4, r5, r6, r7, r8, r9, sl, fp, pc}

00009374 <scheduler_enqueue>:
    9374:	e92d4038 	push	{r3, r4, r5, lr}
    9378:	e1a05000 	mov	r5, r0
    937c:	e3a0000c 	mov	r0, #12
    9380:	fa00025f 	blx	9d04 <malloc>
    9384:	e2504000 	subs	r4, r0, #0
    9388:	15845000 	strne	r5, [r4]
    938c:	13a03000 	movne	r3, #0
    9390:	15843004 	strne	r3, [r4, #4]
    9394:	15843008 	strne	r3, [r4, #8]
    9398:	1a000003 	bne	93ac <scheduler_enqueue+0x38>
    939c:	e30a0b40 	movw	r0, #43840	; 0xab40
    93a0:	e3400000 	movt	r0, #0
    93a4:	ebfffdce 	bl	8ae4 <uart_puts>
    93a8:	eaffffff 	b	93ac <scheduler_enqueue+0x38>
    93ac:	e1a00005 	mov	r0, r5
    93b0:	ebfffefc 	bl	8fa8 <pcb_get>
    93b4:	e3500000 	cmp	r0, #0
    93b8:	0a000025 	beq	9454 <scheduler_enqueue+0xe0>
    93bc:	e5d03004 	ldrb	r3, [r0, #4]
    93c0:	e3530001 	cmp	r3, #1
    93c4:	1a000024 	bne	945c <scheduler_enqueue+0xe8>
    93c8:	e5905008 	ldr	r5, [r0, #8]
    93cc:	e355003f 	cmp	r5, #63	; 0x3f
    93d0:	9a00000a 	bls	9400 <scheduler_enqueue+0x8c>
    93d4:	e30a0b68 	movw	r0, #43880	; 0xab68
    93d8:	e3400000 	movt	r0, #0
    93dc:	ebfffdc0 	bl	8ae4 <uart_puts>
    93e0:	e1a00005 	mov	r0, r5
    93e4:	e3a0100a 	mov	r1, #10
    93e8:	ebfffdee 	bl	8ba8 <uart_put_uint32_t>
    93ec:	e30a0b28 	movw	r0, #43816	; 0xab28
    93f0:	e3400000 	movt	r0, #0
    93f4:	ebfffdba 	bl	8ae4 <uart_puts>
    93f8:	e3e00000 	mvn	r0, #0
    93fc:	e8bd8038 	pop	{r3, r4, r5, pc}
    9400:	e30c3018 	movw	r3, #49176	; 0xc018
    9404:	e3403000 	movt	r3, #0
    9408:	e0833185 	add	r3, r3, r5, lsl #3
    940c:	e5933004 	ldr	r3, [r3, #4]
    9410:	e3530000 	cmp	r3, #0
    9414:	1a000006 	bne	9434 <scheduler_enqueue+0xc0>
    9418:	e30c3018 	movw	r3, #49176	; 0xc018
    941c:	e3403000 	movt	r3, #0
    9420:	e7834185 	str	r4, [r3, r5, lsl #3]
    9424:	e0833185 	add	r3, r3, r5, lsl #3
    9428:	e5834004 	str	r4, [r3, #4]
    942c:	e3a00001 	mov	r0, #1
    9430:	e8bd8038 	pop	{r3, r4, r5, pc}
    9434:	e5834004 	str	r4, [r3, #4]
    9438:	e5843008 	str	r3, [r4, #8]
    943c:	e30c3018 	movw	r3, #49176	; 0xc018
    9440:	e3403000 	movt	r3, #0
    9444:	e0835185 	add	r5, r3, r5, lsl #3
    9448:	e5854004 	str	r4, [r5, #4]
    944c:	e3a00001 	mov	r0, #1
    9450:	e8bd8038 	pop	{r3, r4, r5, pc}
    9454:	e3e00000 	mvn	r0, #0
    9458:	e8bd8038 	pop	{r3, r4, r5, pc}
    945c:	e3a00000 	mov	r0, #0
    9460:	e8bd8038 	pop	{r3, r4, r5, pc}

00009464 <reschedule>:
    9464:	e92d40f8 	push	{r3, r4, r5, r6, r7, lr}
    9468:	e30a3cdc 	movw	r3, #44252	; 0xacdc
    946c:	e3403000 	movt	r3, #0
    9470:	e5930000 	ldr	r0, [r3]
    9474:	e3e01000 	mvn	r1, #0
    9478:	ebfffe99 	bl	8ee4 <pcb_id_compare>
    947c:	e3500000 	cmp	r0, #0
    9480:	1a00002a 	bne	9530 <reschedule+0xcc>
    9484:	e30a3cdc 	movw	r3, #44252	; 0xacdc
    9488:	e3403000 	movt	r3, #0
    948c:	e5930000 	ldr	r0, [r3]
    9490:	ebffffb7 	bl	9374 <scheduler_enqueue>
    9494:	e3700001 	cmn	r0, #1
    9498:	1a000024 	bne	9530 <reschedule+0xcc>
    949c:	e30a0b80 	movw	r0, #43904	; 0xab80
    94a0:	e3400000 	movt	r0, #0
    94a4:	ebfffd8e 	bl	8ae4 <uart_puts>
    94a8:	ea000020 	b	9530 <reschedule+0xcc>
    94ac:	e3540040 	cmp	r4, #64	; 0x40
    94b0:	8a00000e 	bhi	94f0 <reschedule+0x8c>
    94b4:	e59501f8 	ldr	r0, [r5, #504]	; 0x1f8
    94b8:	e3500000 	cmp	r0, #0
    94bc:	0a00000b 	beq	94f0 <reschedule+0x8c>
    94c0:	e59521fc 	ldr	r2, [r5, #508]	; 0x1fc
    94c4:	e1500002 	cmp	r0, r2
    94c8:	058571f8 	streq	r7, [r5, #504]	; 0x1f8
    94cc:	058571fc 	streq	r7, [r5, #508]	; 0x1fc
    94d0:	15902004 	ldrne	r2, [r0, #4]
    94d4:	15827008 	strne	r7, [r2, #8]
    94d8:	15902004 	ldrne	r2, [r0, #4]
    94dc:	158521f8 	strne	r2, [r5, #504]	; 0x1f8
    94e0:	e5906000 	ldr	r6, [r0]
    94e4:	fa00020a 	blx	9d14 <free>
    94e8:	e3560000 	cmp	r6, #0
    94ec:	aa000007 	bge	9510 <reschedule+0xac>
    94f0:	e2444001 	sub	r4, r4, #1
    94f4:	e2455008 	sub	r5, r5, #8
    94f8:	e3740001 	cmn	r4, #1
    94fc:	1affffea 	bne	94ac <reschedule+0x48>
    9500:	e30a0ba4 	movw	r0, #43940	; 0xaba4
    9504:	e3400000 	movt	r0, #0
    9508:	ebfffd75 	bl	8ae4 <uart_puts>
    950c:	e3e06000 	mvn	r6, #0
    9510:	e30c2018 	movw	r2, #49176	; 0xc018
    9514:	e3402000 	movt	r2, #0
    9518:	e30a3cdc 	movw	r3, #44252	; 0xacdc
    951c:	e3403000 	movt	r3, #0
    9520:	e5931000 	ldr	r1, [r3]
    9524:	e5821200 	str	r1, [r2, #512]	; 0x200
    9528:	e5836000 	str	r6, [r3]
    952c:	e8bd80f8 	pop	{r3, r4, r5, r6, r7, pc}
    9530:	e30c5018 	movw	r5, #49176	; 0xc018
    9534:	e3405000 	movt	r5, #0
    9538:	e3a0403f 	mov	r4, #63	; 0x3f
    953c:	e3a07000 	mov	r7, #0
    9540:	eaffffd9 	b	94ac <reschedule+0x48>

00009544 <context_switch_c>:
    9544:	e92d4010 	push	{r4, lr}
    9548:	e1a04000 	mov	r4, r0
    954c:	e30c3018 	movw	r3, #49176	; 0xc018
    9550:	e3403000 	movt	r3, #0
    9554:	e5930200 	ldr	r0, [r3, #512]	; 0x200
    9558:	ebfffe92 	bl	8fa8 <pcb_get>
    955c:	e3500000 	cmp	r0, #0
    9560:	1a000003 	bne	9574 <context_switch_c+0x30>
    9564:	e30a0bd0 	movw	r0, #43984	; 0xabd0
    9568:	e3400000 	movt	r0, #0
    956c:	ebfffd5c 	bl	8ae4 <uart_puts>
    9570:	ea000004 	b	9588 <context_switch_c+0x44>
    9574:	e30c3018 	movw	r3, #49176	; 0xc018
    9578:	e3403000 	movt	r3, #0
    957c:	e5930200 	ldr	r0, [r3, #512]	; 0x200
    9580:	ebfffe88 	bl	8fa8 <pcb_get>
    9584:	e580400c 	str	r4, [r0, #12]
    9588:	e30a3cdc 	movw	r3, #44252	; 0xacdc
    958c:	e3403000 	movt	r3, #0
    9590:	e5930000 	ldr	r0, [r3]
    9594:	ebfffe83 	bl	8fa8 <pcb_get>
    9598:	e3500000 	cmp	r0, #0
    959c:	1a000004 	bne	95b4 <context_switch_c+0x70>
    95a0:	e30a0bfc 	movw	r0, #44028	; 0xabfc
    95a4:	e3400000 	movt	r0, #0
    95a8:	ebfffd4d 	bl	8ae4 <uart_puts>
    95ac:	e3a00000 	mov	r0, #0
    95b0:	e8bd8010 	pop	{r4, pc}
    95b4:	e30a3cdc 	movw	r3, #44252	; 0xacdc
    95b8:	e3403000 	movt	r3, #0
    95bc:	e5930000 	ldr	r0, [r3]
    95c0:	ebfffe78 	bl	8fa8 <pcb_get>
    95c4:	e590000c 	ldr	r0, [r0, #12]
    95c8:	e8bd8010 	pop	{r4, pc}

000095cc <_print_reg>:
    95cc:	e92d4010 	push	{r4, lr}
    95d0:	e1a04000 	mov	r4, r0
    95d4:	e30a0c28 	movw	r0, #44072	; 0xac28
    95d8:	e3400000 	movt	r0, #0
    95dc:	ebfffd40 	bl	8ae4 <uart_puts>
    95e0:	e1a00004 	mov	r0, r4
    95e4:	e3a01010 	mov	r1, #16
    95e8:	ebfffd6e 	bl	8ba8 <uart_put_uint32_t>
    95ec:	e30a0b28 	movw	r0, #43816	; 0xab28
    95f0:	e3400000 	movt	r0, #0
    95f4:	ebfffd3a 	bl	8ae4 <uart_puts>
    95f8:	e8bd8010 	pop	{r4, pc}

000095fc <_get_stack_top>:
    95fc:	e92d4010 	push	{r4, lr}
    9600:	e1a04000 	mov	r4, r0
    9604:	e30a0c34 	movw	r0, #44084	; 0xac34
    9608:	e3400000 	movt	r0, #0
    960c:	ebfffd34 	bl	8ae4 <uart_puts>
    9610:	e5940000 	ldr	r0, [r4]
    9614:	e3a01010 	mov	r1, #16
    9618:	ebfffd62 	bl	8ba8 <uart_put_uint32_t>
    961c:	e30a0b28 	movw	r0, #43816	; 0xab28
    9620:	e3400000 	movt	r0, #0
    9624:	ebfffd2e 	bl	8ae4 <uart_puts>
    9628:	e8bd8010 	pop	{r4, pc}

0000962c <get_current_running_process>:
    962c:	e30a3cdc 	movw	r3, #44252	; 0xacdc
    9630:	e3403000 	movt	r3, #0
    9634:	e5930000 	ldr	r0, [r3]
    9638:	e12fff1e 	bx	lr

0000963c <ipc_msg_enqueue>:
    963c:	e92d40f8 	push	{r3, r4, r5, r6, r7, lr}
    9640:	e1a07000 	mov	r7, r0
    9644:	e1a06001 	mov	r6, r1
    9648:	e1a05002 	mov	r5, r2
    964c:	e281000c 	add	r0, r1, #12
    9650:	fa0001ab 	blx	9d04 <malloc>
    9654:	e2504000 	subs	r4, r0, #0
    9658:	1a000003 	bne	966c <ipc_msg_enqueue+0x30>
    965c:	e30a0c4c 	movw	r0, #44108	; 0xac4c
    9660:	e3400000 	movt	r0, #0
    9664:	ebfffd1e 	bl	8ae4 <uart_puts>
    9668:	ea000008 	b	9690 <ipc_msg_enqueue+0x54>
    966c:	e284000c 	add	r0, r4, #12
    9670:	e1a01007 	mov	r1, r7
    9674:	e1a02006 	mov	r2, r6
    9678:	fa000303 	blx	a28c <memcpy>
    967c:	ebffffea 	bl	962c <get_current_running_process>
    9680:	e5840000 	str	r0, [r4]
    9684:	e3a03000 	mov	r3, #0
    9688:	e5843004 	str	r3, [r4, #4]
    968c:	e5843008 	str	r3, [r4, #8]
    9690:	e1a00005 	mov	r0, r5
    9694:	ebfffe43 	bl	8fa8 <pcb_get>
    9698:	e3500000 	cmp	r0, #0
    969c:	1a00000a 	bne	96cc <ipc_msg_enqueue+0x90>
    96a0:	e30a0c78 	movw	r0, #44152	; 0xac78
    96a4:	e3400000 	movt	r0, #0
    96a8:	ebfffd0d 	bl	8ae4 <uart_puts>
    96ac:	e1a00005 	mov	r0, r5
    96b0:	e3a0100a 	mov	r1, #10
    96b4:	ebfffd3b 	bl	8ba8 <uart_put_uint32_t>
    96b8:	e30a0b28 	movw	r0, #43816	; 0xab28
    96bc:	e3400000 	movt	r0, #0
    96c0:	ebfffd07 	bl	8ae4 <uart_puts>
    96c4:	e3e00000 	mvn	r0, #0
    96c8:	e8bd80f8 	pop	{r3, r4, r5, r6, r7, pc}
    96cc:	e1a00005 	mov	r0, r5
    96d0:	ebfffe34 	bl	8fa8 <pcb_get>
    96d4:	e1a05000 	mov	r5, r0
    96d8:	ebffffd3 	bl	962c <get_current_running_process>
    96dc:	ebfffe31 	bl	8fa8 <pcb_get>
    96e0:	e5903008 	ldr	r3, [r0, #8]
    96e4:	e353003f 	cmp	r3, #63	; 0x3f
    96e8:	9a000004 	bls	9700 <ipc_msg_enqueue+0xc4>
    96ec:	e30a0ca8 	movw	r0, #44200	; 0xaca8
    96f0:	e3400000 	movt	r0, #0
    96f4:	ebfffcfa 	bl	8ae4 <uart_puts>
    96f8:	e3e00000 	mvn	r0, #0
    96fc:	e8bd80f8 	pop	{r3, r4, r5, r6, r7, pc}
    9700:	e0850183 	add	r0, r5, r3, lsl #3
    9704:	e5903024 	ldr	r3, [r0, #36]	; 0x24
    9708:	e3530000 	cmp	r3, #0
    970c:	05804020 	streq	r4, [r0, #32]
    9710:	15834004 	strne	r4, [r3, #4]
    9714:	15843008 	strne	r3, [r4, #8]
    9718:	e5804024 	str	r4, [r0, #36]	; 0x24
    971c:	e3a00001 	mov	r0, #1
    9720:	e8bd80f8 	pop	{r3, r4, r5, r6, r7, pc}

00009724 <ipc_send>:
    9724:	e52de004 	push	{lr}		; (str lr, [sp, #-4]!)
    9728:	e24dd00c 	sub	sp, sp, #12
    972c:	e28d3008 	add	r3, sp, #8
    9730:	e5230004 	str	r0, [r3, #-4]!
    9734:	e3a00000 	mov	r0, #0
    9738:	ebfffafc 	bl	8330 <_SYSTEM_CALL>
    973c:	e3a00001 	mov	r0, #1
    9740:	e28dd00c 	add	sp, sp, #12
    9744:	e49df004 	pop	{pc}		; (ldr pc, [sp], #4)

00009748 <ipc_receive>:
    9748:	e92d4070 	push	{r4, r5, r6, lr}
    974c:	e1a06000 	mov	r6, r0
    9750:	e1a05001 	mov	r5, r1
    9754:	e281000c 	add	r0, r1, #12
    9758:	fa000169 	blx	9d04 <malloc>
    975c:	e1a04000 	mov	r4, r0
    9760:	e3a00001 	mov	r0, #1
    9764:	e1a01004 	mov	r1, r4
    9768:	e1a02005 	mov	r2, r5
    976c:	e3a03000 	mov	r3, #0
    9770:	ebfffaee 	bl	8330 <_SYSTEM_CALL>
    9774:	e1a00006 	mov	r0, r6
    9778:	e284100c 	add	r1, r4, #12
    977c:	e1a02005 	mov	r2, r5
    9780:	fa0002c1 	blx	a28c <memcpy>
    9784:	e5945000 	ldr	r5, [r4]
    9788:	e1a00004 	mov	r0, r4
    978c:	fa000160 	blx	9d14 <free>
    9790:	e1a00005 	mov	r0, r5
    9794:	e8bd8070 	pop	{r4, r5, r6, pc}

00009798 <system_send>:
    9798:	e92d4010 	push	{r4, lr}
    979c:	e1a04002 	mov	r4, r2
    97a0:	ebffffa5 	bl	963c <ipc_msg_enqueue>
    97a4:	ebffffa0 	bl	962c <get_current_running_process>
    97a8:	ebfffdfe 	bl	8fa8 <pcb_get>
    97ac:	e3a03002 	mov	r3, #2
    97b0:	e5c03004 	strb	r3, [r0, #4]
    97b4:	e1a00004 	mov	r0, r4
    97b8:	ebfffdfa 	bl	8fa8 <pcb_get>
    97bc:	e5d03004 	ldrb	r3, [r0, #4]
    97c0:	e3530002 	cmp	r3, #2
    97c4:	18bd8010 	popne	{r4, pc}
    97c8:	e1a00004 	mov	r0, r4
    97cc:	ebfffdf5 	bl	8fa8 <pcb_get>
    97d0:	e3a03001 	mov	r3, #1
    97d4:	e5c03004 	strb	r3, [r0, #4]
    97d8:	e1a00004 	mov	r0, r4
    97dc:	ebfffee4 	bl	9374 <scheduler_enqueue>
    97e0:	e8bd8010 	pop	{r4, pc}

000097e4 <system_receive>:
    97e4:	e92d41f0 	push	{r4, r5, r6, r7, r8, lr}
    97e8:	e1a06000 	mov	r6, r0
    97ec:	e1a07001 	mov	r7, r1
    97f0:	ebffff8d 	bl	962c <get_current_running_process>
    97f4:	ebfffdeb 	bl	8fa8 <pcb_get>
    97f8:	e1a08000 	mov	r8, r0
    97fc:	e3a0503f 	mov	r5, #63	; 0x3f
    9800:	ebffff89 	bl	962c <get_current_running_process>
    9804:	ebfffde7 	bl	8fa8 <pcb_get>
    9808:	e3550040 	cmp	r5, #64	; 0x40
    980c:	8a00000f 	bhi	9850 <system_receive+0x6c>
    9810:	e2853004 	add	r3, r5, #4
    9814:	e7904183 	ldr	r4, [r0, r3, lsl #3]
    9818:	e3540000 	cmp	r4, #0
    981c:	0a00000b 	beq	9850 <system_receive+0x6c>
    9820:	e0805185 	add	r5, r0, r5, lsl #3
    9824:	e5953024 	ldr	r3, [r5, #36]	; 0x24
    9828:	e1540003 	cmp	r4, r3
    982c:	03a03000 	moveq	r3, #0
    9830:	05853020 	streq	r3, [r5, #32]
    9834:	05853024 	streq	r3, [r5, #36]	; 0x24
    9838:	15943004 	ldrne	r3, [r4, #4]
    983c:	13a02000 	movne	r2, #0
    9840:	15832008 	strne	r2, [r3, #8]
    9844:	15943004 	ldrne	r3, [r4, #4]
    9848:	15853020 	strne	r3, [r5, #32]
    984c:	ea000003 	b	9860 <system_receive+0x7c>
    9850:	e2455001 	sub	r5, r5, #1
    9854:	e3750001 	cmn	r5, #1
    9858:	1affffe8 	bne	9800 <system_receive+0x1c>
    985c:	ea00000c 	b	9894 <system_receive+0xb0>
    9860:	e1a00006 	mov	r0, r6
    9864:	e1a01004 	mov	r1, r4
    9868:	e287200c 	add	r2, r7, #12
    986c:	fa000286 	blx	a28c <memcpy>
    9870:	e1a00004 	mov	r0, r4
    9874:	fa000126 	blx	9d14 <free>
    9878:	e5960000 	ldr	r0, [r6]
    987c:	ebfffdc9 	bl	8fa8 <pcb_get>
    9880:	e3a03001 	mov	r3, #1
    9884:	e5c03004 	strb	r3, [r0, #4]
    9888:	e5960000 	ldr	r0, [r6]
    988c:	ebfffeb8 	bl	9374 <scheduler_enqueue>
    9890:	e8bd81f0 	pop	{r4, r5, r6, r7, r8, pc}
    9894:	e3a03002 	mov	r3, #2
    9898:	e5c83004 	strb	r3, [r8, #4]
    989c:	e8bd81f0 	pop	{r4, r5, r6, r7, r8, pc}

000098a0 <jtag_enable>:
    98a0:	e92d4008 	push	{r3, lr}
    98a4:	ebfffbce 	bl	87e4 <get_gpio>
    98a8:	e5903000 	ldr	r3, [r0]
    98ac:	e3c33a07 	bic	r3, r3, #28672	; 0x7000
    98b0:	e5803000 	str	r3, [r0]
    98b4:	e5903000 	ldr	r3, [r0]
    98b8:	e3833a02 	orr	r3, r3, #8192	; 0x2000
    98bc:	e5803000 	str	r3, [r0]
    98c0:	e5902008 	ldr	r2, [r0, #8]
    98c4:	e3003e3f 	movw	r3, #3647	; 0xe3f
    98c8:	e34f3f1c 	movt	r3, #65308	; 0xff1c
    98cc:	e0023003 	and	r3, r2, r3
    98d0:	e5803008 	str	r3, [r0, #8]
    98d4:	e5902008 	ldr	r2, [r0, #8]
    98d8:	e30b30c0 	movw	r3, #45248	; 0xb0c0
    98dc:	e3403061 	movt	r3, #97	; 0x61
    98e0:	e1823003 	orr	r3, r2, r3
    98e4:	e5803008 	str	r3, [r0, #8]
    98e8:	e8bd8008 	pop	{r3, pc}

000098ec <mmu_init_table>:
    98ec:	e3a03000 	mov	r3, #0
    98f0:	e3001000 	movw	r1, #0
    98f4:	e3401001 	movt	r1, #1
    98f8:	e1a02a03 	lsl	r2, r3, #20
    98fc:	e3822b47 	orr	r2, r2, #72704	; 0x11c00
    9900:	e382200e 	orr	r2, r2, #14
    9904:	e7812103 	str	r2, [r1, r3, lsl #2]
    9908:	e2833001 	add	r3, r3, #1
    990c:	e3530e3f 	cmp	r3, #1008	; 0x3f0
    9910:	1afffff8 	bne	98f8 <mmu_init_table+0xc>
    9914:	e3001000 	movw	r1, #0
    9918:	e3401001 	movt	r1, #1
    991c:	e1a02a03 	lsl	r2, r3, #20
    9920:	e3822b43 	orr	r2, r2, #68608	; 0x10c00
    9924:	e3822016 	orr	r2, r2, #22
    9928:	e7812103 	str	r2, [r1, r3, lsl #2]
    992c:	e2833001 	add	r3, r3, #1
    9930:	e3530b01 	cmp	r3, #1024	; 0x400
    9934:	1afffff8 	bne	991c <mmu_init_table+0x30>
    9938:	e3002000 	movw	r2, #0
    993c:	e3402001 	movt	r2, #1
    9940:	e3a01000 	mov	r1, #0
    9944:	e7821103 	str	r1, [r2, r3, lsl #2]
    9948:	e2833001 	add	r3, r3, #1
    994c:	e3530a01 	cmp	r3, #4096	; 0x1000
    9950:	1afffffb 	bne	9944 <mmu_init_table+0x58>
    9954:	e12fff1e 	bx	lr

00009958 <mmu_configure>:
    9958:	ee113f30 	mrc	15, 0, r3, cr1, cr0, {1}
    995c:	e3833040 	orr	r3, r3, #64	; 0x40
    9960:	ee013f30 	mcr	15, 0, r3, cr1, cr0, {1}
    9964:	e3a03003 	mov	r3, #3
    9968:	ee033f10 	mcr	15, 0, r3, cr3, cr0, {0}
    996c:	e3a03000 	mov	r3, #0
    9970:	ee023f50 	mcr	15, 0, r3, cr2, cr0, {2}
    9974:	e3003000 	movw	r3, #0
    9978:	e3403001 	movt	r3, #1
    997c:	e383300b 	orr	r3, r3, #11
    9980:	ee023f10 	mcr	15, 0, r3, cr2, cr0, {0}
    9984:	f57ff06f 	isb	sy
    9988:	e12fff1e 	bx	lr

0000998c <mmu_remap_section>:
    998c:	e1a00a20 	lsr	r0, r0, #20
    9990:	e3003000 	movw	r3, #0
    9994:	e3403001 	movt	r3, #1
    9998:	e3a0c000 	mov	ip, #0
    999c:	e783c100 	str	ip, [r3, r0, lsl #2]
    99a0:	f57ff04f 	dsb	sy
    99a4:	e3a03000 	mov	r3, #0
    99a8:	ee083f15 	mcr	15, 0, r3, cr8, cr5, {0}
    99ac:	e1a01a21 	lsr	r1, r1, #20
    99b0:	e1822a01 	orr	r2, r2, r1, lsl #20
    99b4:	e3003000 	movw	r3, #0
    99b8:	e3403001 	movt	r3, #1
    99bc:	e7832100 	str	r2, [r3, r0, lsl #2]
    99c0:	f57ff04f 	dsb	sy
    99c4:	e12fff1e 	bx	lr

000099c8 <time_for_reschedule>:
    99c8:	e3a00001 	mov	r0, #1
    99cc:	e12fff1e 	bx	lr

000099d0 <time_handler>:
    99d0:	e92d4010 	push	{r4, lr}
    99d4:	ebfffb67 	bl	8778 <arm_timer_irq_ack>
    99d8:	e3044000 	movw	r4, #16384	; 0x4000
    99dc:	e3404001 	movt	r4, #1
    99e0:	e5943000 	ldr	r3, [r4]
    99e4:	e2833001 	add	r3, r3, #1
    99e8:	e5843000 	str	r3, [r4]
    99ec:	ebfffb5d 	bl	8768 <arm_timer_get_freq>
    99f0:	e5943000 	ldr	r3, [r4]
    99f4:	e1500003 	cmp	r0, r3
    99f8:	2a000005 	bcs	9a14 <time_handler+0x44>
    99fc:	e1c420d8 	ldrd	r2, [r4, #8]
    9a00:	e2922001 	adds	r2, r2, #1
    9a04:	e2a33000 	adc	r3, r3, #0
    9a08:	e1c420f8 	strd	r2, [r4, #8]
    9a0c:	e3a03000 	mov	r3, #0
    9a10:	e5843000 	str	r3, [r4]
    9a14:	e30a0cc8 	movw	r0, #44232	; 0xacc8
    9a18:	e3400000 	movt	r0, #0
    9a1c:	ebfffc30 	bl	8ae4 <uart_puts>
    9a20:	ebfffe8f 	bl	9464 <reschedule>
    9a24:	e3a00001 	mov	r0, #1
    9a28:	e8bd8010 	pop	{r4, pc}

00009a2c <time_increments_get>:
    9a2c:	e3043000 	movw	r3, #16384	; 0x4000
    9a30:	e3403001 	movt	r3, #1
    9a34:	e5930000 	ldr	r0, [r3]
    9a38:	e12fff1e 	bx	lr

00009a3c <time_get_seconds>:
    9a3c:	e3043000 	movw	r3, #16384	; 0x4000
    9a40:	e3403001 	movt	r3, #1
    9a44:	e1c300d8 	ldrd	r0, [r3, #8]
    9a48:	e12fff1e 	bx	lr
    9a4c:	00000000 	andeq	r0, r0, r0

00009a50 <__aeabi_idiv>:
    9a50:	2900      	cmp	r1, #0
    9a52:	f000 813e 	beq.w	9cd2 <.divsi3_skip_div0_test+0x27c>

00009a56 <.divsi3_skip_div0_test>:
    9a56:	ea80 0c01 	eor.w	ip, r0, r1
    9a5a:	bf48      	it	mi
    9a5c:	4249      	negmi	r1, r1
    9a5e:	1e4a      	subs	r2, r1, #1
    9a60:	f000 811f 	beq.w	9ca2 <.divsi3_skip_div0_test+0x24c>
    9a64:	0003      	movs	r3, r0
    9a66:	bf48      	it	mi
    9a68:	4243      	negmi	r3, r0
    9a6a:	428b      	cmp	r3, r1
    9a6c:	f240 811e 	bls.w	9cac <.divsi3_skip_div0_test+0x256>
    9a70:	4211      	tst	r1, r2
    9a72:	f000 8123 	beq.w	9cbc <.divsi3_skip_div0_test+0x266>
    9a76:	fab3 f283 	clz	r2, r3
    9a7a:	fab1 f081 	clz	r0, r1
    9a7e:	eba0 0202 	sub.w	r2, r0, r2
    9a82:	f1c2 021f 	rsb	r2, r2, #31
    9a86:	a004      	add	r0, pc, #16	; (adr r0, 9a98 <.divsi3_skip_div0_test+0x42>)
    9a88:	eb00 1202 	add.w	r2, r0, r2, lsl #4
    9a8c:	f04f 0000 	mov.w	r0, #0
    9a90:	4697      	mov	pc, r2
    9a92:	bf00      	nop
    9a94:	f3af 8000 	nop.w
    9a98:	ebb3 7fc1 	cmp.w	r3, r1, lsl #31
    9a9c:	bf00      	nop
    9a9e:	eb40 0000 	adc.w	r0, r0, r0
    9aa2:	bf28      	it	cs
    9aa4:	eba3 73c1 	subcs.w	r3, r3, r1, lsl #31
    9aa8:	ebb3 7f81 	cmp.w	r3, r1, lsl #30
    9aac:	bf00      	nop
    9aae:	eb40 0000 	adc.w	r0, r0, r0
    9ab2:	bf28      	it	cs
    9ab4:	eba3 7381 	subcs.w	r3, r3, r1, lsl #30
    9ab8:	ebb3 7f41 	cmp.w	r3, r1, lsl #29
    9abc:	bf00      	nop
    9abe:	eb40 0000 	adc.w	r0, r0, r0
    9ac2:	bf28      	it	cs
    9ac4:	eba3 7341 	subcs.w	r3, r3, r1, lsl #29
    9ac8:	ebb3 7f01 	cmp.w	r3, r1, lsl #28
    9acc:	bf00      	nop
    9ace:	eb40 0000 	adc.w	r0, r0, r0
    9ad2:	bf28      	it	cs
    9ad4:	eba3 7301 	subcs.w	r3, r3, r1, lsl #28
    9ad8:	ebb3 6fc1 	cmp.w	r3, r1, lsl #27
    9adc:	bf00      	nop
    9ade:	eb40 0000 	adc.w	r0, r0, r0
    9ae2:	bf28      	it	cs
    9ae4:	eba3 63c1 	subcs.w	r3, r3, r1, lsl #27
    9ae8:	ebb3 6f81 	cmp.w	r3, r1, lsl #26
    9aec:	bf00      	nop
    9aee:	eb40 0000 	adc.w	r0, r0, r0
    9af2:	bf28      	it	cs
    9af4:	eba3 6381 	subcs.w	r3, r3, r1, lsl #26
    9af8:	ebb3 6f41 	cmp.w	r3, r1, lsl #25
    9afc:	bf00      	nop
    9afe:	eb40 0000 	adc.w	r0, r0, r0
    9b02:	bf28      	it	cs
    9b04:	eba3 6341 	subcs.w	r3, r3, r1, lsl #25
    9b08:	ebb3 6f01 	cmp.w	r3, r1, lsl #24
    9b0c:	bf00      	nop
    9b0e:	eb40 0000 	adc.w	r0, r0, r0
    9b12:	bf28      	it	cs
    9b14:	eba3 6301 	subcs.w	r3, r3, r1, lsl #24
    9b18:	ebb3 5fc1 	cmp.w	r3, r1, lsl #23
    9b1c:	bf00      	nop
    9b1e:	eb40 0000 	adc.w	r0, r0, r0
    9b22:	bf28      	it	cs
    9b24:	eba3 53c1 	subcs.w	r3, r3, r1, lsl #23
    9b28:	ebb3 5f81 	cmp.w	r3, r1, lsl #22
    9b2c:	bf00      	nop
    9b2e:	eb40 0000 	adc.w	r0, r0, r0
    9b32:	bf28      	it	cs
    9b34:	eba3 5381 	subcs.w	r3, r3, r1, lsl #22
    9b38:	ebb3 5f41 	cmp.w	r3, r1, lsl #21
    9b3c:	bf00      	nop
    9b3e:	eb40 0000 	adc.w	r0, r0, r0
    9b42:	bf28      	it	cs
    9b44:	eba3 5341 	subcs.w	r3, r3, r1, lsl #21
    9b48:	ebb3 5f01 	cmp.w	r3, r1, lsl #20
    9b4c:	bf00      	nop
    9b4e:	eb40 0000 	adc.w	r0, r0, r0
    9b52:	bf28      	it	cs
    9b54:	eba3 5301 	subcs.w	r3, r3, r1, lsl #20
    9b58:	ebb3 4fc1 	cmp.w	r3, r1, lsl #19
    9b5c:	bf00      	nop
    9b5e:	eb40 0000 	adc.w	r0, r0, r0
    9b62:	bf28      	it	cs
    9b64:	eba3 43c1 	subcs.w	r3, r3, r1, lsl #19
    9b68:	ebb3 4f81 	cmp.w	r3, r1, lsl #18
    9b6c:	bf00      	nop
    9b6e:	eb40 0000 	adc.w	r0, r0, r0
    9b72:	bf28      	it	cs
    9b74:	eba3 4381 	subcs.w	r3, r3, r1, lsl #18
    9b78:	ebb3 4f41 	cmp.w	r3, r1, lsl #17
    9b7c:	bf00      	nop
    9b7e:	eb40 0000 	adc.w	r0, r0, r0
    9b82:	bf28      	it	cs
    9b84:	eba3 4341 	subcs.w	r3, r3, r1, lsl #17
    9b88:	ebb3 4f01 	cmp.w	r3, r1, lsl #16
    9b8c:	bf00      	nop
    9b8e:	eb40 0000 	adc.w	r0, r0, r0
    9b92:	bf28      	it	cs
    9b94:	eba3 4301 	subcs.w	r3, r3, r1, lsl #16
    9b98:	ebb3 3fc1 	cmp.w	r3, r1, lsl #15
    9b9c:	bf00      	nop
    9b9e:	eb40 0000 	adc.w	r0, r0, r0
    9ba2:	bf28      	it	cs
    9ba4:	eba3 33c1 	subcs.w	r3, r3, r1, lsl #15
    9ba8:	ebb3 3f81 	cmp.w	r3, r1, lsl #14
    9bac:	bf00      	nop
    9bae:	eb40 0000 	adc.w	r0, r0, r0
    9bb2:	bf28      	it	cs
    9bb4:	eba3 3381 	subcs.w	r3, r3, r1, lsl #14
    9bb8:	ebb3 3f41 	cmp.w	r3, r1, lsl #13
    9bbc:	bf00      	nop
    9bbe:	eb40 0000 	adc.w	r0, r0, r0
    9bc2:	bf28      	it	cs
    9bc4:	eba3 3341 	subcs.w	r3, r3, r1, lsl #13
    9bc8:	ebb3 3f01 	cmp.w	r3, r1, lsl #12
    9bcc:	bf00      	nop
    9bce:	eb40 0000 	adc.w	r0, r0, r0
    9bd2:	bf28      	it	cs
    9bd4:	eba3 3301 	subcs.w	r3, r3, r1, lsl #12
    9bd8:	ebb3 2fc1 	cmp.w	r3, r1, lsl #11
    9bdc:	bf00      	nop
    9bde:	eb40 0000 	adc.w	r0, r0, r0
    9be2:	bf28      	it	cs
    9be4:	eba3 23c1 	subcs.w	r3, r3, r1, lsl #11
    9be8:	ebb3 2f81 	cmp.w	r3, r1, lsl #10
    9bec:	bf00      	nop
    9bee:	eb40 0000 	adc.w	r0, r0, r0
    9bf2:	bf28      	it	cs
    9bf4:	eba3 2381 	subcs.w	r3, r3, r1, lsl #10
    9bf8:	ebb3 2f41 	cmp.w	r3, r1, lsl #9
    9bfc:	bf00      	nop
    9bfe:	eb40 0000 	adc.w	r0, r0, r0
    9c02:	bf28      	it	cs
    9c04:	eba3 2341 	subcs.w	r3, r3, r1, lsl #9
    9c08:	ebb3 2f01 	cmp.w	r3, r1, lsl #8
    9c0c:	bf00      	nop
    9c0e:	eb40 0000 	adc.w	r0, r0, r0
    9c12:	bf28      	it	cs
    9c14:	eba3 2301 	subcs.w	r3, r3, r1, lsl #8
    9c18:	ebb3 1fc1 	cmp.w	r3, r1, lsl #7
    9c1c:	bf00      	nop
    9c1e:	eb40 0000 	adc.w	r0, r0, r0
    9c22:	bf28      	it	cs
    9c24:	eba3 13c1 	subcs.w	r3, r3, r1, lsl #7
    9c28:	ebb3 1f81 	cmp.w	r3, r1, lsl #6
    9c2c:	bf00      	nop
    9c2e:	eb40 0000 	adc.w	r0, r0, r0
    9c32:	bf28      	it	cs
    9c34:	eba3 1381 	subcs.w	r3, r3, r1, lsl #6
    9c38:	ebb3 1f41 	cmp.w	r3, r1, lsl #5
    9c3c:	bf00      	nop
    9c3e:	eb40 0000 	adc.w	r0, r0, r0
    9c42:	bf28      	it	cs
    9c44:	eba3 1341 	subcs.w	r3, r3, r1, lsl #5
    9c48:	ebb3 1f01 	cmp.w	r3, r1, lsl #4
    9c4c:	bf00      	nop
    9c4e:	eb40 0000 	adc.w	r0, r0, r0
    9c52:	bf28      	it	cs
    9c54:	eba3 1301 	subcs.w	r3, r3, r1, lsl #4
    9c58:	ebb3 0fc1 	cmp.w	r3, r1, lsl #3
    9c5c:	bf00      	nop
    9c5e:	eb40 0000 	adc.w	r0, r0, r0
    9c62:	bf28      	it	cs
    9c64:	eba3 03c1 	subcs.w	r3, r3, r1, lsl #3
    9c68:	ebb3 0f81 	cmp.w	r3, r1, lsl #2
    9c6c:	bf00      	nop
    9c6e:	eb40 0000 	adc.w	r0, r0, r0
    9c72:	bf28      	it	cs
    9c74:	eba3 0381 	subcs.w	r3, r3, r1, lsl #2
    9c78:	ebb3 0f41 	cmp.w	r3, r1, lsl #1
    9c7c:	bf00      	nop
    9c7e:	eb40 0000 	adc.w	r0, r0, r0
    9c82:	bf28      	it	cs
    9c84:	eba3 0341 	subcs.w	r3, r3, r1, lsl #1
    9c88:	ebb3 0f01 	cmp.w	r3, r1
    9c8c:	bf00      	nop
    9c8e:	eb40 0000 	adc.w	r0, r0, r0
    9c92:	bf28      	it	cs
    9c94:	eba3 0301 	subcs.w	r3, r3, r1
    9c98:	f1bc 0f00 	cmp.w	ip, #0
    9c9c:	bf48      	it	mi
    9c9e:	4240      	negmi	r0, r0
    9ca0:	4770      	bx	lr
    9ca2:	ea9c 0f00 	teq	ip, r0
    9ca6:	bf48      	it	mi
    9ca8:	4240      	negmi	r0, r0
    9caa:	4770      	bx	lr
    9cac:	bf38      	it	cc
    9cae:	2000      	movcc	r0, #0
    9cb0:	bf04      	itt	eq
    9cb2:	ea4f 70ec 	moveq.w	r0, ip, asr #31
    9cb6:	f040 0001 	orreq.w	r0, r0, #1
    9cba:	4770      	bx	lr
    9cbc:	fab1 f281 	clz	r2, r1
    9cc0:	f1c2 021f 	rsb	r2, r2, #31
    9cc4:	f1bc 0f00 	cmp.w	ip, #0
    9cc8:	fa23 f002 	lsr.w	r0, r3, r2
    9ccc:	bf48      	it	mi
    9cce:	4240      	negmi	r0, r0
    9cd0:	4770      	bx	lr
    9cd2:	2800      	cmp	r0, #0
    9cd4:	bfc8      	it	gt
    9cd6:	f06f 4000 	mvngt.w	r0, #2147483648	; 0x80000000
    9cda:	bfb8      	it	lt
    9cdc:	f04f 4000 	movlt.w	r0, #2147483648	; 0x80000000
    9ce0:	f000 b80e 	b.w	9d00 <__aeabi_idiv0>

00009ce4 <__aeabi_idivmod>:
    9ce4:	2900      	cmp	r1, #0
    9ce6:	d0f4      	beq.n	9cd2 <.divsi3_skip_div0_test+0x27c>
    9ce8:	e92d 4003 	stmdb	sp!, {r0, r1, lr}
    9cec:	f7ff feb3 	bl	9a56 <.divsi3_skip_div0_test>
    9cf0:	e8bd 4006 	ldmia.w	sp!, {r1, r2, lr}
    9cf4:	fb02 f300 	mul.w	r3, r2, r0
    9cf8:	eba1 0103 	sub.w	r1, r1, r3
    9cfc:	4770      	bx	lr
    9cfe:	bf00      	nop

00009d00 <__aeabi_idiv0>:
    9d00:	4770      	bx	lr
    9d02:	bf00      	nop

00009d04 <malloc>:
    9d04:	f24b 5318 	movw	r3, #46360	; 0xb518
    9d08:	f2c0 0300 	movt	r3, #0
    9d0c:	4601      	mov	r1, r0
    9d0e:	6818      	ldr	r0, [r3, #0]
    9d10:	f000 b808 	b.w	9d24 <_malloc_r>

00009d14 <free>:
    9d14:	f24b 5318 	movw	r3, #46360	; 0xb518
    9d18:	f2c0 0300 	movt	r3, #0
    9d1c:	4601      	mov	r1, r0
    9d1e:	6818      	ldr	r0, [r3, #0]
    9d20:	f000 bc48 	b.w	a5b4 <_free_r>

00009d24 <_malloc_r>:
    9d24:	e92d 4ff0 	stmdb	sp!, {r4, r5, r6, r7, r8, r9, sl, fp, lr}
    9d28:	f101 040b 	add.w	r4, r1, #11
    9d2c:	2c16      	cmp	r4, #22
    9d2e:	b083      	sub	sp, #12
    9d30:	bf88      	it	hi
    9d32:	f024 0407 	bichi.w	r4, r4, #7
    9d36:	4607      	mov	r7, r0
    9d38:	bf9a      	itte	ls
    9d3a:	2300      	movls	r3, #0
    9d3c:	2410      	movls	r4, #16
    9d3e:	0fe3      	lsrhi	r3, r4, #31
    9d40:	428c      	cmp	r4, r1
    9d42:	bf2c      	ite	cs
    9d44:	4619      	movcs	r1, r3
    9d46:	f043 0101 	orrcc.w	r1, r3, #1
    9d4a:	2900      	cmp	r1, #0
    9d4c:	f040 80b4 	bne.w	9eb8 <_malloc_r+0x194>
    9d50:	f000 fb40 	bl	a3d4 <__malloc_lock>
    9d54:	f5b4 7ffc 	cmp.w	r4, #504	; 0x1f8
    9d58:	d220      	bcs.n	9d9c <_malloc_r+0x78>
    9d5a:	ea4f 0cd4 	mov.w	ip, r4, lsr #3
    9d5e:	f64a 46e0 	movw	r6, #44256	; 0xace0
    9d62:	f2c0 0600 	movt	r6, #0
    9d66:	eb06 02cc 	add.w	r2, r6, ip, lsl #3
    9d6a:	68d3      	ldr	r3, [r2, #12]
    9d6c:	4293      	cmp	r3, r2
    9d6e:	f000 81f5 	beq.w	a15c <_malloc_r+0x438>
    9d72:	6859      	ldr	r1, [r3, #4]
    9d74:	f103 0508 	add.w	r5, r3, #8
    9d78:	68da      	ldr	r2, [r3, #12]
    9d7a:	4638      	mov	r0, r7
    9d7c:	f021 0403 	bic.w	r4, r1, #3
    9d80:	6899      	ldr	r1, [r3, #8]
    9d82:	4423      	add	r3, r4
    9d84:	685c      	ldr	r4, [r3, #4]
    9d86:	60ca      	str	r2, [r1, #12]
    9d88:	f044 0401 	orr.w	r4, r4, #1
    9d8c:	6091      	str	r1, [r2, #8]
    9d8e:	605c      	str	r4, [r3, #4]
    9d90:	f000 fb22 	bl	a3d8 <__malloc_unlock>
    9d94:	4628      	mov	r0, r5
    9d96:	b003      	add	sp, #12
    9d98:	e8bd 8ff0 	ldmia.w	sp!, {r4, r5, r6, r7, r8, r9, sl, fp, pc}
    9d9c:	ea5f 2c54 	movs.w	ip, r4, lsr #9
    9da0:	bf04      	itt	eq
    9da2:	257e      	moveq	r5, #126	; 0x7e
    9da4:	f04f 0c3f 	moveq.w	ip, #63	; 0x3f
    9da8:	f040 808d 	bne.w	9ec6 <_malloc_r+0x1a2>
    9dac:	f64a 46e0 	movw	r6, #44256	; 0xace0
    9db0:	f2c0 0600 	movt	r6, #0
    9db4:	eb06 0585 	add.w	r5, r6, r5, lsl #2
    9db8:	68eb      	ldr	r3, [r5, #12]
    9dba:	429d      	cmp	r5, r3
    9dbc:	d106      	bne.n	9dcc <_malloc_r+0xa8>
    9dbe:	e00d      	b.n	9ddc <_malloc_r+0xb8>
    9dc0:	2a00      	cmp	r2, #0
    9dc2:	f280 8162 	bge.w	a08a <_malloc_r+0x366>
    9dc6:	68db      	ldr	r3, [r3, #12]
    9dc8:	429d      	cmp	r5, r3
    9dca:	d007      	beq.n	9ddc <_malloc_r+0xb8>
    9dcc:	6859      	ldr	r1, [r3, #4]
    9dce:	f021 0103 	bic.w	r1, r1, #3
    9dd2:	1b0a      	subs	r2, r1, r4
    9dd4:	2a0f      	cmp	r2, #15
    9dd6:	ddf3      	ble.n	9dc0 <_malloc_r+0x9c>
    9dd8:	f10c 3cff 	add.w	ip, ip, #4294967295	; 0xffffffff
    9ddc:	f10c 0c01 	add.w	ip, ip, #1
    9de0:	f64a 42e0 	movw	r2, #44256	; 0xace0
    9de4:	6933      	ldr	r3, [r6, #16]
    9de6:	f2c0 0200 	movt	r2, #0
    9dea:	f102 0e08 	add.w	lr, r2, #8
    9dee:	4573      	cmp	r3, lr
    9df0:	bf08      	it	eq
    9df2:	6851      	ldreq	r1, [r2, #4]
    9df4:	d021      	beq.n	9e3a <_malloc_r+0x116>
    9df6:	6858      	ldr	r0, [r3, #4]
    9df8:	f020 0003 	bic.w	r0, r0, #3
    9dfc:	1b01      	subs	r1, r0, r4
    9dfe:	290f      	cmp	r1, #15
    9e00:	f300 8190 	bgt.w	a124 <_malloc_r+0x400>
    9e04:	2900      	cmp	r1, #0
    9e06:	f8c2 e014 	str.w	lr, [r2, #20]
    9e0a:	f8c2 e010 	str.w	lr, [r2, #16]
    9e0e:	da65      	bge.n	9edc <_malloc_r+0x1b8>
    9e10:	f5b0 7f00 	cmp.w	r0, #512	; 0x200
    9e14:	f080 815f 	bcs.w	a0d6 <_malloc_r+0x3b2>
    9e18:	08c0      	lsrs	r0, r0, #3
    9e1a:	f04f 0801 	mov.w	r8, #1
    9e1e:	6851      	ldr	r1, [r2, #4]
    9e20:	eb02 05c0 	add.w	r5, r2, r0, lsl #3
    9e24:	1080      	asrs	r0, r0, #2
    9e26:	fa08 f800 	lsl.w	r8, r8, r0
    9e2a:	68a8      	ldr	r0, [r5, #8]
    9e2c:	ea48 0101 	orr.w	r1, r8, r1
    9e30:	60dd      	str	r5, [r3, #12]
    9e32:	6051      	str	r1, [r2, #4]
    9e34:	6098      	str	r0, [r3, #8]
    9e36:	60ab      	str	r3, [r5, #8]
    9e38:	60c3      	str	r3, [r0, #12]
    9e3a:	ea4f 03ac 	mov.w	r3, ip, asr #2
    9e3e:	2001      	movs	r0, #1
    9e40:	4098      	lsls	r0, r3
    9e42:	4288      	cmp	r0, r1
    9e44:	d858      	bhi.n	9ef8 <_malloc_r+0x1d4>
    9e46:	4201      	tst	r1, r0
    9e48:	d106      	bne.n	9e58 <_malloc_r+0x134>
    9e4a:	f02c 0c03 	bic.w	ip, ip, #3
    9e4e:	0040      	lsls	r0, r0, #1
    9e50:	f10c 0c04 	add.w	ip, ip, #4
    9e54:	4201      	tst	r1, r0
    9e56:	d0fa      	beq.n	9e4e <_malloc_r+0x12a>
    9e58:	eb06 08cc 	add.w	r8, r6, ip, lsl #3
    9e5c:	46e1      	mov	r9, ip
    9e5e:	4645      	mov	r5, r8
    9e60:	68ea      	ldr	r2, [r5, #12]
    9e62:	4295      	cmp	r5, r2
    9e64:	d107      	bne.n	9e76 <_malloc_r+0x152>
    9e66:	e171      	b.n	a14c <_malloc_r+0x428>
    9e68:	2900      	cmp	r1, #0
    9e6a:	f280 8181 	bge.w	a170 <_malloc_r+0x44c>
    9e6e:	68d2      	ldr	r2, [r2, #12]
    9e70:	4295      	cmp	r5, r2
    9e72:	f000 816b 	beq.w	a14c <_malloc_r+0x428>
    9e76:	6853      	ldr	r3, [r2, #4]
    9e78:	f023 0303 	bic.w	r3, r3, #3
    9e7c:	1b19      	subs	r1, r3, r4
    9e7e:	290f      	cmp	r1, #15
    9e80:	ddf2      	ble.n	9e68 <_malloc_r+0x144>
    9e82:	4615      	mov	r5, r2
    9e84:	f8d2 c00c 	ldr.w	ip, [r2, #12]
    9e88:	f855 8f08 	ldr.w	r8, [r5, #8]!
    9e8c:	1913      	adds	r3, r2, r4
    9e8e:	4638      	mov	r0, r7
    9e90:	f044 0401 	orr.w	r4, r4, #1
    9e94:	f041 0701 	orr.w	r7, r1, #1
    9e98:	6054      	str	r4, [r2, #4]
    9e9a:	f8c8 c00c 	str.w	ip, [r8, #12]
    9e9e:	f8cc 8008 	str.w	r8, [ip, #8]
    9ea2:	6173      	str	r3, [r6, #20]
    9ea4:	6133      	str	r3, [r6, #16]
    9ea6:	f8c3 e00c 	str.w	lr, [r3, #12]
    9eaa:	f8c3 e008 	str.w	lr, [r3, #8]
    9eae:	605f      	str	r7, [r3, #4]
    9eb0:	5059      	str	r1, [r3, r1]
    9eb2:	f000 fa91 	bl	a3d8 <__malloc_unlock>
    9eb6:	e76d      	b.n	9d94 <_malloc_r+0x70>
    9eb8:	2500      	movs	r5, #0
    9eba:	230c      	movs	r3, #12
    9ebc:	6003      	str	r3, [r0, #0]
    9ebe:	4628      	mov	r0, r5
    9ec0:	b003      	add	sp, #12
    9ec2:	e8bd 8ff0 	ldmia.w	sp!, {r4, r5, r6, r7, r8, r9, sl, fp, pc}
    9ec6:	f1bc 0f04 	cmp.w	ip, #4
    9eca:	f200 80f0 	bhi.w	a0ae <_malloc_r+0x38a>
    9ece:	ea4f 1c94 	mov.w	ip, r4, lsr #6
    9ed2:	f10c 0c38 	add.w	ip, ip, #56	; 0x38
    9ed6:	ea4f 054c 	mov.w	r5, ip, lsl #1
    9eda:	e767      	b.n	9dac <_malloc_r+0x88>
    9edc:	181a      	adds	r2, r3, r0
    9ede:	f103 0508 	add.w	r5, r3, #8
    9ee2:	4638      	mov	r0, r7
    9ee4:	6853      	ldr	r3, [r2, #4]
    9ee6:	f043 0301 	orr.w	r3, r3, #1
    9eea:	6053      	str	r3, [r2, #4]
    9eec:	f000 fa74 	bl	a3d8 <__malloc_unlock>
    9ef0:	4628      	mov	r0, r5
    9ef2:	b003      	add	sp, #12
    9ef4:	e8bd 8ff0 	ldmia.w	sp!, {r4, r5, r6, r7, r8, r9, sl, fp, pc}
    9ef8:	68b5      	ldr	r5, [r6, #8]
    9efa:	686b      	ldr	r3, [r5, #4]
    9efc:	f023 0903 	bic.w	r9, r3, #3
    9f00:	454c      	cmp	r4, r9
    9f02:	d804      	bhi.n	9f0e <_malloc_r+0x1ea>
    9f04:	ebc4 0309 	rsb	r3, r4, r9
    9f08:	2b0f      	cmp	r3, #15
    9f0a:	f300 80ae 	bgt.w	a06a <_malloc_r+0x346>
    9f0e:	f244 0318 	movw	r3, #16408	; 0x4018
    9f12:	f24b 0aec 	movw	sl, #45292	; 0xb0ec
    9f16:	f2c0 0301 	movt	r3, #1
    9f1a:	f2c0 0a00 	movt	sl, #0
    9f1e:	4638      	mov	r0, r7
    9f20:	eb05 0209 	add.w	r2, r5, r9
    9f24:	681b      	ldr	r3, [r3, #0]
    9f26:	f8da 1000 	ldr.w	r1, [sl]
    9f2a:	4423      	add	r3, r4
    9f2c:	3101      	adds	r1, #1
    9f2e:	bf17      	itett	ne
    9f30:	f503 5380 	addne.w	r3, r3, #4096	; 0x1000
    9f34:	f103 0c10 	addeq.w	ip, r3, #16
    9f38:	330f      	addne	r3, #15
    9f3a:	f423 637f 	bicne.w	r3, r3, #4080	; 0xff0
    9f3e:	bf18      	it	ne
    9f40:	f023 0c0f 	bicne.w	ip, r3, #15
    9f44:	e88d 1004 	stmia.w	sp, {r2, ip}
    9f48:	4661      	mov	r1, ip
    9f4a:	f000 fa9d 	bl	a488 <_sbrk_r>
    9f4e:	e89d 1004 	ldmia.w	sp, {r2, ip}
    9f52:	f1b0 3fff 	cmp.w	r0, #4294967295	; 0xffffffff
    9f56:	4680      	mov	r8, r0
    9f58:	f000 8120 	beq.w	a19c <_malloc_r+0x478>
    9f5c:	4282      	cmp	r2, r0
    9f5e:	f200 811a 	bhi.w	a196 <_malloc_r+0x472>
    9f62:	f244 0b1c 	movw	fp, #16412	; 0x401c
    9f66:	f2c0 0b01 	movt	fp, #1
    9f6a:	4542      	cmp	r2, r8
    9f6c:	f8db 3000 	ldr.w	r3, [fp]
    9f70:	4463      	add	r3, ip
    9f72:	f8cb 3000 	str.w	r3, [fp]
    9f76:	f000 815f 	beq.w	a238 <_malloc_r+0x514>
    9f7a:	f8da 0000 	ldr.w	r0, [sl]
    9f7e:	f24b 01ec 	movw	r1, #45292	; 0xb0ec
    9f82:	f2c0 0100 	movt	r1, #0
    9f86:	3001      	adds	r0, #1
    9f88:	4638      	mov	r0, r7
    9f8a:	bf17      	itett	ne
    9f8c:	ebc2 0208 	rsbne	r2, r2, r8
    9f90:	f8c1 8000 	streq.w	r8, [r1]
    9f94:	189b      	addne	r3, r3, r2
    9f96:	f8cb 3000 	strne.w	r3, [fp]
    9f9a:	f018 0307 	ands.w	r3, r8, #7
    9f9e:	bf1f      	itttt	ne
    9fa0:	f1c3 0208 	rsbne	r2, r3, #8
    9fa4:	f5c3 5380 	rsbne	r3, r3, #4096	; 0x1000
    9fa8:	4490      	addne	r8, r2
    9faa:	f103 0a08 	addne.w	sl, r3, #8
    9fae:	eb08 030c 	add.w	r3, r8, ip
    9fb2:	bf08      	it	eq
    9fb4:	f44f 5a80 	moveq.w	sl, #4096	; 0x1000
    9fb8:	f3c3 030b 	ubfx	r3, r3, #0, #12
    9fbc:	ebc3 0a0a 	rsb	sl, r3, sl
    9fc0:	4651      	mov	r1, sl
    9fc2:	f000 fa61 	bl	a488 <_sbrk_r>
    9fc6:	f244 021c 	movw	r2, #16412	; 0x401c
    9fca:	f8c6 8008 	str.w	r8, [r6, #8]
    9fce:	f2c0 0201 	movt	r2, #1
    9fd2:	1c43      	adds	r3, r0, #1
    9fd4:	f8db 3000 	ldr.w	r3, [fp]
    9fd8:	bf1b      	ittet	ne
    9fda:	ebc8 0100 	rsbne	r1, r8, r0
    9fde:	4451      	addne	r1, sl
    9fe0:	2101      	moveq	r1, #1
    9fe2:	f041 0101 	orrne.w	r1, r1, #1
    9fe6:	bf08      	it	eq
    9fe8:	f04f 0a00 	moveq.w	sl, #0
    9fec:	42b5      	cmp	r5, r6
    9fee:	4453      	add	r3, sl
    9ff0:	f8c8 1004 	str.w	r1, [r8, #4]
    9ff4:	f8cb 3000 	str.w	r3, [fp]
    9ff8:	d018      	beq.n	a02c <_malloc_r+0x308>
    9ffa:	f1b9 0f0f 	cmp.w	r9, #15
    9ffe:	f240 80fc 	bls.w	a1fa <_malloc_r+0x4d6>
    a002:	f1a9 010c 	sub.w	r1, r9, #12
    a006:	6868      	ldr	r0, [r5, #4]
    a008:	f021 0107 	bic.w	r1, r1, #7
    a00c:	f04f 0c05 	mov.w	ip, #5
    a010:	eb05 0e01 	add.w	lr, r5, r1
    a014:	290f      	cmp	r1, #15
    a016:	f000 0001 	and.w	r0, r0, #1
    a01a:	ea41 0000 	orr.w	r0, r1, r0
    a01e:	6068      	str	r0, [r5, #4]
    a020:	f8ce c004 	str.w	ip, [lr, #4]
    a024:	f8ce c008 	str.w	ip, [lr, #8]
    a028:	f200 8112 	bhi.w	a250 <_malloc_r+0x52c>
    a02c:	f244 0214 	movw	r2, #16404	; 0x4014
    a030:	f2c0 0201 	movt	r2, #1
    a034:	68b5      	ldr	r5, [r6, #8]
    a036:	6811      	ldr	r1, [r2, #0]
    a038:	428b      	cmp	r3, r1
    a03a:	bf88      	it	hi
    a03c:	6013      	strhi	r3, [r2, #0]
    a03e:	f244 0210 	movw	r2, #16400	; 0x4010
    a042:	f2c0 0201 	movt	r2, #1
    a046:	6811      	ldr	r1, [r2, #0]
    a048:	428b      	cmp	r3, r1
    a04a:	bf88      	it	hi
    a04c:	6013      	strhi	r3, [r2, #0]
    a04e:	686a      	ldr	r2, [r5, #4]
    a050:	f022 0203 	bic.w	r2, r2, #3
    a054:	4294      	cmp	r4, r2
    a056:	ebc4 0302 	rsb	r3, r4, r2
    a05a:	d801      	bhi.n	a060 <_malloc_r+0x33c>
    a05c:	2b0f      	cmp	r3, #15
    a05e:	dc04      	bgt.n	a06a <_malloc_r+0x346>
    a060:	4638      	mov	r0, r7
    a062:	2500      	movs	r5, #0
    a064:	f000 f9b8 	bl	a3d8 <__malloc_unlock>
    a068:	e694      	b.n	9d94 <_malloc_r+0x70>
    a06a:	192a      	adds	r2, r5, r4
    a06c:	f043 0301 	orr.w	r3, r3, #1
    a070:	4638      	mov	r0, r7
    a072:	f044 0401 	orr.w	r4, r4, #1
    a076:	606c      	str	r4, [r5, #4]
    a078:	3508      	adds	r5, #8
    a07a:	60b2      	str	r2, [r6, #8]
    a07c:	6053      	str	r3, [r2, #4]
    a07e:	f000 f9ab 	bl	a3d8 <__malloc_unlock>
    a082:	4628      	mov	r0, r5
    a084:	b003      	add	sp, #12
    a086:	e8bd 8ff0 	ldmia.w	sp!, {r4, r5, r6, r7, r8, r9, sl, fp, pc}
    a08a:	4419      	add	r1, r3
    a08c:	68da      	ldr	r2, [r3, #12]
    a08e:	689c      	ldr	r4, [r3, #8]
    a090:	4638      	mov	r0, r7
    a092:	684e      	ldr	r6, [r1, #4]
    a094:	f103 0508 	add.w	r5, r3, #8
    a098:	60e2      	str	r2, [r4, #12]
    a09a:	f046 0601 	orr.w	r6, r6, #1
    a09e:	6094      	str	r4, [r2, #8]
    a0a0:	604e      	str	r6, [r1, #4]
    a0a2:	f000 f999 	bl	a3d8 <__malloc_unlock>
    a0a6:	4628      	mov	r0, r5
    a0a8:	b003      	add	sp, #12
    a0aa:	e8bd 8ff0 	ldmia.w	sp!, {r4, r5, r6, r7, r8, r9, sl, fp, pc}
    a0ae:	f1bc 0f14 	cmp.w	ip, #20
    a0b2:	bf9c      	itt	ls
    a0b4:	f10c 0c5b 	addls.w	ip, ip, #91	; 0x5b
    a0b8:	ea4f 054c 	movls.w	r5, ip, lsl #1
    a0bc:	f67f ae76 	bls.w	9dac <_malloc_r+0x88>
    a0c0:	f1bc 0f54 	cmp.w	ip, #84	; 0x54
    a0c4:	f200 808f 	bhi.w	a1e6 <_malloc_r+0x4c2>
    a0c8:	ea4f 3c14 	mov.w	ip, r4, lsr #12
    a0cc:	f10c 0c6e 	add.w	ip, ip, #110	; 0x6e
    a0d0:	ea4f 054c 	mov.w	r5, ip, lsl #1
    a0d4:	e66a      	b.n	9dac <_malloc_r+0x88>
    a0d6:	0a42      	lsrs	r2, r0, #9
    a0d8:	2a04      	cmp	r2, #4
    a0da:	d958      	bls.n	a18e <_malloc_r+0x46a>
    a0dc:	2a14      	cmp	r2, #20
    a0de:	bf9c      	itt	ls
    a0e0:	f102 015b 	addls.w	r1, r2, #91	; 0x5b
    a0e4:	004d      	lslls	r5, r1, #1
    a0e6:	d905      	bls.n	a0f4 <_malloc_r+0x3d0>
    a0e8:	2a54      	cmp	r2, #84	; 0x54
    a0ea:	f200 80ba 	bhi.w	a262 <_malloc_r+0x53e>
    a0ee:	0b01      	lsrs	r1, r0, #12
    a0f0:	316e      	adds	r1, #110	; 0x6e
    a0f2:	004d      	lsls	r5, r1, #1
    a0f4:	eb06 0585 	add.w	r5, r6, r5, lsl #2
    a0f8:	f64a 48e0 	movw	r8, #44256	; 0xace0
    a0fc:	f2c0 0800 	movt	r8, #0
    a100:	68aa      	ldr	r2, [r5, #8]
    a102:	42aa      	cmp	r2, r5
    a104:	d07f      	beq.n	a206 <_malloc_r+0x4e2>
    a106:	6851      	ldr	r1, [r2, #4]
    a108:	f021 0103 	bic.w	r1, r1, #3
    a10c:	4288      	cmp	r0, r1
    a10e:	d202      	bcs.n	a116 <_malloc_r+0x3f2>
    a110:	6892      	ldr	r2, [r2, #8]
    a112:	4295      	cmp	r5, r2
    a114:	d1f7      	bne.n	a106 <_malloc_r+0x3e2>
    a116:	68d0      	ldr	r0, [r2, #12]
    a118:	6871      	ldr	r1, [r6, #4]
    a11a:	60d8      	str	r0, [r3, #12]
    a11c:	609a      	str	r2, [r3, #8]
    a11e:	6083      	str	r3, [r0, #8]
    a120:	60d3      	str	r3, [r2, #12]
    a122:	e68a      	b.n	9e3a <_malloc_r+0x116>
    a124:	191e      	adds	r6, r3, r4
    a126:	4638      	mov	r0, r7
    a128:	f044 0401 	orr.w	r4, r4, #1
    a12c:	f041 0701 	orr.w	r7, r1, #1
    a130:	605c      	str	r4, [r3, #4]
    a132:	f103 0508 	add.w	r5, r3, #8
    a136:	6156      	str	r6, [r2, #20]
    a138:	6116      	str	r6, [r2, #16]
    a13a:	f8c6 e00c 	str.w	lr, [r6, #12]
    a13e:	f8c6 e008 	str.w	lr, [r6, #8]
    a142:	6077      	str	r7, [r6, #4]
    a144:	5071      	str	r1, [r6, r1]
    a146:	f000 f947 	bl	a3d8 <__malloc_unlock>
    a14a:	e623      	b.n	9d94 <_malloc_r+0x70>
    a14c:	f109 0901 	add.w	r9, r9, #1
    a150:	3508      	adds	r5, #8
    a152:	f019 0f03 	tst.w	r9, #3
    a156:	f47f ae83 	bne.w	9e60 <_malloc_r+0x13c>
    a15a:	e028      	b.n	a1ae <_malloc_r+0x48a>
    a15c:	f103 0208 	add.w	r2, r3, #8
    a160:	695b      	ldr	r3, [r3, #20]
    a162:	429a      	cmp	r2, r3
    a164:	bf08      	it	eq
    a166:	f10c 0c02 	addeq.w	ip, ip, #2
    a16a:	f43f ae39 	beq.w	9de0 <_malloc_r+0xbc>
    a16e:	e600      	b.n	9d72 <_malloc_r+0x4e>
    a170:	4413      	add	r3, r2
    a172:	4615      	mov	r5, r2
    a174:	f855 1f08 	ldr.w	r1, [r5, #8]!
    a178:	4638      	mov	r0, r7
    a17a:	68d2      	ldr	r2, [r2, #12]
    a17c:	685c      	ldr	r4, [r3, #4]
    a17e:	f044 0401 	orr.w	r4, r4, #1
    a182:	605c      	str	r4, [r3, #4]
    a184:	60ca      	str	r2, [r1, #12]
    a186:	6091      	str	r1, [r2, #8]
    a188:	f000 f926 	bl	a3d8 <__malloc_unlock>
    a18c:	e602      	b.n	9d94 <_malloc_r+0x70>
    a18e:	0981      	lsrs	r1, r0, #6
    a190:	3138      	adds	r1, #56	; 0x38
    a192:	004d      	lsls	r5, r1, #1
    a194:	e7ae      	b.n	a0f4 <_malloc_r+0x3d0>
    a196:	42b5      	cmp	r5, r6
    a198:	f43f aee3 	beq.w	9f62 <_malloc_r+0x23e>
    a19c:	68b5      	ldr	r5, [r6, #8]
    a19e:	686a      	ldr	r2, [r5, #4]
    a1a0:	f022 0203 	bic.w	r2, r2, #3
    a1a4:	e756      	b.n	a054 <_malloc_r+0x330>
    a1a6:	f8d8 8000 	ldr.w	r8, [r8]
    a1aa:	4598      	cmp	r8, r3
    a1ac:	d16b      	bne.n	a286 <_malloc_r+0x562>
    a1ae:	f01c 0f03 	tst.w	ip, #3
    a1b2:	f1a8 0308 	sub.w	r3, r8, #8
    a1b6:	f10c 3cff 	add.w	ip, ip, #4294967295	; 0xffffffff
    a1ba:	d1f4      	bne.n	a1a6 <_malloc_r+0x482>
    a1bc:	6873      	ldr	r3, [r6, #4]
    a1be:	ea23 0300 	bic.w	r3, r3, r0
    a1c2:	6073      	str	r3, [r6, #4]
    a1c4:	0040      	lsls	r0, r0, #1
    a1c6:	4298      	cmp	r0, r3
    a1c8:	f63f ae96 	bhi.w	9ef8 <_malloc_r+0x1d4>
    a1cc:	2800      	cmp	r0, #0
    a1ce:	f43f ae93 	beq.w	9ef8 <_malloc_r+0x1d4>
    a1d2:	4203      	tst	r3, r0
    a1d4:	46cc      	mov	ip, r9
    a1d6:	f47f ae3f 	bne.w	9e58 <_malloc_r+0x134>
    a1da:	0040      	lsls	r0, r0, #1
    a1dc:	f10c 0c04 	add.w	ip, ip, #4
    a1e0:	4203      	tst	r3, r0
    a1e2:	d0fa      	beq.n	a1da <_malloc_r+0x4b6>
    a1e4:	e638      	b.n	9e58 <_malloc_r+0x134>
    a1e6:	f5bc 7faa 	cmp.w	ip, #340	; 0x154
    a1ea:	d816      	bhi.n	a21a <_malloc_r+0x4f6>
    a1ec:	ea4f 3cd4 	mov.w	ip, r4, lsr #15
    a1f0:	f10c 0c77 	add.w	ip, ip, #119	; 0x77
    a1f4:	ea4f 054c 	mov.w	r5, ip, lsl #1
    a1f8:	e5d8      	b.n	9dac <_malloc_r+0x88>
    a1fa:	2301      	movs	r3, #1
    a1fc:	4645      	mov	r5, r8
    a1fe:	f8c8 3004 	str.w	r3, [r8, #4]
    a202:	2200      	movs	r2, #0
    a204:	e726      	b.n	a054 <_malloc_r+0x330>
    a206:	1088      	asrs	r0, r1, #2
    a208:	2501      	movs	r5, #1
    a20a:	f8d8 1004 	ldr.w	r1, [r8, #4]
    a20e:	4085      	lsls	r5, r0
    a210:	4610      	mov	r0, r2
    a212:	4329      	orrs	r1, r5
    a214:	f8c8 1004 	str.w	r1, [r8, #4]
    a218:	e77f      	b.n	a11a <_malloc_r+0x3f6>
    a21a:	f240 5354 	movw	r3, #1364	; 0x554
    a21e:	459c      	cmp	ip, r3
    a220:	bf99      	ittee	ls
    a222:	ea4f 4c94 	movls.w	ip, r4, lsr #18
    a226:	f10c 0c7c 	addls.w	ip, ip, #124	; 0x7c
    a22a:	25fc      	movhi	r5, #252	; 0xfc
    a22c:	f04f 0c7e 	movhi.w	ip, #126	; 0x7e
    a230:	bf98      	it	ls
    a232:	ea4f 054c 	movls.w	r5, ip, lsl #1
    a236:	e5b9      	b.n	9dac <_malloc_r+0x88>
    a238:	f3c2 010b 	ubfx	r1, r2, #0, #12
    a23c:	2900      	cmp	r1, #0
    a23e:	f47f ae9c 	bne.w	9f7a <_malloc_r+0x256>
    a242:	68b2      	ldr	r2, [r6, #8]
    a244:	eb0c 0109 	add.w	r1, ip, r9
    a248:	f041 0101 	orr.w	r1, r1, #1
    a24c:	6051      	str	r1, [r2, #4]
    a24e:	e6ed      	b.n	a02c <_malloc_r+0x308>
    a250:	f105 0108 	add.w	r1, r5, #8
    a254:	4638      	mov	r0, r7
    a256:	9200      	str	r2, [sp, #0]
    a258:	f000 f9ac 	bl	a5b4 <_free_r>
    a25c:	9a00      	ldr	r2, [sp, #0]
    a25e:	6813      	ldr	r3, [r2, #0]
    a260:	e6e4      	b.n	a02c <_malloc_r+0x308>
    a262:	f5b2 7faa 	cmp.w	r2, #340	; 0x154
    a266:	d803      	bhi.n	a270 <_malloc_r+0x54c>
    a268:	0bc1      	lsrs	r1, r0, #15
    a26a:	3177      	adds	r1, #119	; 0x77
    a26c:	004d      	lsls	r5, r1, #1
    a26e:	e741      	b.n	a0f4 <_malloc_r+0x3d0>
    a270:	f240 5154 	movw	r1, #1364	; 0x554
    a274:	428a      	cmp	r2, r1
    a276:	bf99      	ittee	ls
    a278:	0c81      	lsrls	r1, r0, #18
    a27a:	317c      	addls	r1, #124	; 0x7c
    a27c:	25fc      	movhi	r5, #252	; 0xfc
    a27e:	217e      	movhi	r1, #126	; 0x7e
    a280:	bf98      	it	ls
    a282:	004d      	lslls	r5, r1, #1
    a284:	e736      	b.n	a0f4 <_malloc_r+0x3d0>
    a286:	6873      	ldr	r3, [r6, #4]
    a288:	e79c      	b.n	a1c4 <_malloc_r+0x4a0>
    a28a:	bf00      	nop

0000a28c <memcpy>:
    a28c:	2a0f      	cmp	r2, #15
    a28e:	b4f0      	push	{r4, r5, r6, r7}
    a290:	d945      	bls.n	a31e <memcpy+0x92>
    a292:	ea40 0301 	orr.w	r3, r0, r1
    a296:	079b      	lsls	r3, r3, #30
    a298:	d145      	bne.n	a326 <memcpy+0x9a>
    a29a:	f1a2 0710 	sub.w	r7, r2, #16
    a29e:	460c      	mov	r4, r1
    a2a0:	4603      	mov	r3, r0
    a2a2:	093f      	lsrs	r7, r7, #4
    a2a4:	eb00 1607 	add.w	r6, r0, r7, lsl #4
    a2a8:	3610      	adds	r6, #16
    a2aa:	6825      	ldr	r5, [r4, #0]
    a2ac:	3310      	adds	r3, #16
    a2ae:	3410      	adds	r4, #16
    a2b0:	f843 5c10 	str.w	r5, [r3, #-16]
    a2b4:	f854 5c0c 	ldr.w	r5, [r4, #-12]
    a2b8:	f843 5c0c 	str.w	r5, [r3, #-12]
    a2bc:	f854 5c08 	ldr.w	r5, [r4, #-8]
    a2c0:	f843 5c08 	str.w	r5, [r3, #-8]
    a2c4:	f854 5c04 	ldr.w	r5, [r4, #-4]
    a2c8:	f843 5c04 	str.w	r5, [r3, #-4]
    a2cc:	42b3      	cmp	r3, r6
    a2ce:	d1ec      	bne.n	a2aa <memcpy+0x1e>
    a2d0:	1c7b      	adds	r3, r7, #1
    a2d2:	f002 0c0f 	and.w	ip, r2, #15
    a2d6:	f1bc 0f03 	cmp.w	ip, #3
    a2da:	ea4f 1303 	mov.w	r3, r3, lsl #4
    a2de:	4419      	add	r1, r3
    a2e0:	4403      	add	r3, r0
    a2e2:	d922      	bls.n	a32a <memcpy+0x9e>
    a2e4:	460e      	mov	r6, r1
    a2e6:	461d      	mov	r5, r3
    a2e8:	4664      	mov	r4, ip
    a2ea:	f856 7b04 	ldr.w	r7, [r6], #4
    a2ee:	3c04      	subs	r4, #4
    a2f0:	2c03      	cmp	r4, #3
    a2f2:	f845 7b04 	str.w	r7, [r5], #4
    a2f6:	d8f8      	bhi.n	a2ea <memcpy+0x5e>
    a2f8:	f1ac 0404 	sub.w	r4, ip, #4
    a2fc:	f002 0203 	and.w	r2, r2, #3
    a300:	f024 0403 	bic.w	r4, r4, #3
    a304:	3404      	adds	r4, #4
    a306:	4423      	add	r3, r4
    a308:	4421      	add	r1, r4
    a30a:	b132      	cbz	r2, a31a <memcpy+0x8e>
    a30c:	440a      	add	r2, r1
    a30e:	f811 4b01 	ldrb.w	r4, [r1], #1
    a312:	4291      	cmp	r1, r2
    a314:	f803 4b01 	strb.w	r4, [r3], #1
    a318:	d1f9      	bne.n	a30e <memcpy+0x82>
    a31a:	bcf0      	pop	{r4, r5, r6, r7}
    a31c:	4770      	bx	lr
    a31e:	4603      	mov	r3, r0
    a320:	2a00      	cmp	r2, #0
    a322:	d1f3      	bne.n	a30c <memcpy+0x80>
    a324:	e7f9      	b.n	a31a <memcpy+0x8e>
    a326:	4603      	mov	r3, r0
    a328:	e7f0      	b.n	a30c <memcpy+0x80>
    a32a:	4662      	mov	r2, ip
    a32c:	2a00      	cmp	r2, #0
    a32e:	d1ed      	bne.n	a30c <memcpy+0x80>
    a330:	e7f3      	b.n	a31a <memcpy+0x8e>
    a332:	bf00      	nop

0000a334 <memset>:
    a334:	0783      	lsls	r3, r0, #30
    a336:	b4f0      	push	{r4, r5, r6, r7}
    a338:	d048      	beq.n	a3cc <memset+0x98>
    a33a:	1e54      	subs	r4, r2, #1
    a33c:	2a00      	cmp	r2, #0
    a33e:	d043      	beq.n	a3c8 <memset+0x94>
    a340:	b2cd      	uxtb	r5, r1
    a342:	4603      	mov	r3, r0
    a344:	e002      	b.n	a34c <memset+0x18>
    a346:	2c00      	cmp	r4, #0
    a348:	d03e      	beq.n	a3c8 <memset+0x94>
    a34a:	4614      	mov	r4, r2
    a34c:	f803 5b01 	strb.w	r5, [r3], #1
    a350:	f013 0f03 	tst.w	r3, #3
    a354:	f104 32ff 	add.w	r2, r4, #4294967295	; 0xffffffff
    a358:	d1f5      	bne.n	a346 <memset+0x12>
    a35a:	2c03      	cmp	r4, #3
    a35c:	d92d      	bls.n	a3ba <memset+0x86>
    a35e:	b2cd      	uxtb	r5, r1
    a360:	2c0f      	cmp	r4, #15
    a362:	ea45 2505 	orr.w	r5, r5, r5, lsl #8
    a366:	ea45 4505 	orr.w	r5, r5, r5, lsl #16
    a36a:	d918      	bls.n	a39e <memset+0x6a>
    a36c:	f1a4 0710 	sub.w	r7, r4, #16
    a370:	f103 0610 	add.w	r6, r3, #16
    a374:	461a      	mov	r2, r3
    a376:	093f      	lsrs	r7, r7, #4
    a378:	eb06 1607 	add.w	r6, r6, r7, lsl #4
    a37c:	6015      	str	r5, [r2, #0]
    a37e:	3210      	adds	r2, #16
    a380:	f842 5c0c 	str.w	r5, [r2, #-12]
    a384:	f842 5c08 	str.w	r5, [r2, #-8]
    a388:	f842 5c04 	str.w	r5, [r2, #-4]
    a38c:	42b2      	cmp	r2, r6
    a38e:	d1f5      	bne.n	a37c <memset+0x48>
    a390:	f004 040f 	and.w	r4, r4, #15
    a394:	3701      	adds	r7, #1
    a396:	2c03      	cmp	r4, #3
    a398:	eb03 1307 	add.w	r3, r3, r7, lsl #4
    a39c:	d90d      	bls.n	a3ba <memset+0x86>
    a39e:	461e      	mov	r6, r3
    a3a0:	4622      	mov	r2, r4
    a3a2:	3a04      	subs	r2, #4
    a3a4:	f846 5b04 	str.w	r5, [r6], #4
    a3a8:	2a03      	cmp	r2, #3
    a3aa:	d8fa      	bhi.n	a3a2 <memset+0x6e>
    a3ac:	1f22      	subs	r2, r4, #4
    a3ae:	f004 0403 	and.w	r4, r4, #3
    a3b2:	f022 0203 	bic.w	r2, r2, #3
    a3b6:	3204      	adds	r2, #4
    a3b8:	4413      	add	r3, r2
    a3ba:	b12c      	cbz	r4, a3c8 <memset+0x94>
    a3bc:	b2c9      	uxtb	r1, r1
    a3be:	441c      	add	r4, r3
    a3c0:	f803 1b01 	strb.w	r1, [r3], #1
    a3c4:	42a3      	cmp	r3, r4
    a3c6:	d1fb      	bne.n	a3c0 <memset+0x8c>
    a3c8:	bcf0      	pop	{r4, r5, r6, r7}
    a3ca:	4770      	bx	lr
    a3cc:	4614      	mov	r4, r2
    a3ce:	4603      	mov	r3, r0
    a3d0:	e7c3      	b.n	a35a <memset+0x26>
    a3d2:	bf00      	nop

0000a3d4 <__malloc_lock>:
    a3d4:	4770      	bx	lr
    a3d6:	bf00      	nop

0000a3d8 <__malloc_unlock>:
    a3d8:	4770      	bx	lr
    a3da:	bf00      	nop

0000a3dc <cleanup_glue>:
    a3dc:	b538      	push	{r3, r4, r5, lr}
    a3de:	460c      	mov	r4, r1
    a3e0:	6809      	ldr	r1, [r1, #0]
    a3e2:	4605      	mov	r5, r0
    a3e4:	b109      	cbz	r1, a3ea <cleanup_glue+0xe>
    a3e6:	f7ff fff9 	bl	a3dc <cleanup_glue>
    a3ea:	4628      	mov	r0, r5
    a3ec:	4621      	mov	r1, r4
    a3ee:	e8bd 4038 	ldmia.w	sp!, {r3, r4, r5, lr}
    a3f2:	f000 b8df 	b.w	a5b4 <_free_r>
    a3f6:	bf00      	nop

0000a3f8 <_reclaim_reent>:
    a3f8:	f24b 5318 	movw	r3, #46360	; 0xb518
    a3fc:	f2c0 0300 	movt	r3, #0
    a400:	b570      	push	{r4, r5, r6, lr}
    a402:	4605      	mov	r5, r0
    a404:	681b      	ldr	r3, [r3, #0]
    a406:	4298      	cmp	r0, r3
    a408:	d031      	beq.n	a46e <_reclaim_reent+0x76>
    a40a:	6cc2      	ldr	r2, [r0, #76]	; 0x4c
    a40c:	b1aa      	cbz	r2, a43a <_reclaim_reent+0x42>
    a40e:	2300      	movs	r3, #0
    a410:	461e      	mov	r6, r3
    a412:	f852 1023 	ldr.w	r1, [r2, r3, lsl #2]
    a416:	b909      	cbnz	r1, a41c <_reclaim_reent+0x24>
    a418:	e007      	b.n	a42a <_reclaim_reent+0x32>
    a41a:	4621      	mov	r1, r4
    a41c:	680c      	ldr	r4, [r1, #0]
    a41e:	4628      	mov	r0, r5
    a420:	f000 f8c8 	bl	a5b4 <_free_r>
    a424:	2c00      	cmp	r4, #0
    a426:	d1f8      	bne.n	a41a <_reclaim_reent+0x22>
    a428:	6cea      	ldr	r2, [r5, #76]	; 0x4c
    a42a:	3601      	adds	r6, #1
    a42c:	2e20      	cmp	r6, #32
    a42e:	4633      	mov	r3, r6
    a430:	d1ef      	bne.n	a412 <_reclaim_reent+0x1a>
    a432:	4611      	mov	r1, r2
    a434:	4628      	mov	r0, r5
    a436:	f000 f8bd 	bl	a5b4 <_free_r>
    a43a:	6c29      	ldr	r1, [r5, #64]	; 0x40
    a43c:	b111      	cbz	r1, a444 <_reclaim_reent+0x4c>
    a43e:	4628      	mov	r0, r5
    a440:	f000 f8b8 	bl	a5b4 <_free_r>
    a444:	f8d5 1148 	ldr.w	r1, [r5, #328]	; 0x148
    a448:	b151      	cbz	r1, a460 <_reclaim_reent+0x68>
    a44a:	f505 76a6 	add.w	r6, r5, #332	; 0x14c
    a44e:	42b1      	cmp	r1, r6
    a450:	d006      	beq.n	a460 <_reclaim_reent+0x68>
    a452:	680c      	ldr	r4, [r1, #0]
    a454:	4628      	mov	r0, r5
    a456:	f000 f8ad 	bl	a5b4 <_free_r>
    a45a:	42a6      	cmp	r6, r4
    a45c:	4621      	mov	r1, r4
    a45e:	d1f8      	bne.n	a452 <_reclaim_reent+0x5a>
    a460:	6d69      	ldr	r1, [r5, #84]	; 0x54
    a462:	b111      	cbz	r1, a46a <_reclaim_reent+0x72>
    a464:	4628      	mov	r0, r5
    a466:	f000 f8a5 	bl	a5b4 <_free_r>
    a46a:	6bab      	ldr	r3, [r5, #56]	; 0x38
    a46c:	b903      	cbnz	r3, a470 <_reclaim_reent+0x78>
    a46e:	bd70      	pop	{r4, r5, r6, pc}
    a470:	6beb      	ldr	r3, [r5, #60]	; 0x3c
    a472:	4628      	mov	r0, r5
    a474:	4798      	blx	r3
    a476:	f8d5 12e0 	ldr.w	r1, [r5, #736]	; 0x2e0
    a47a:	2900      	cmp	r1, #0
    a47c:	d0f7      	beq.n	a46e <_reclaim_reent+0x76>
    a47e:	4628      	mov	r0, r5
    a480:	e8bd 4070 	ldmia.w	sp!, {r4, r5, r6, lr}
    a484:	f7ff bfaa 	b.w	a3dc <cleanup_glue>

0000a488 <_sbrk_r>:
    a488:	b538      	push	{r3, r4, r5, lr}
    a48a:	f244 0444 	movw	r4, #16452	; 0x4044
    a48e:	f2c0 0401 	movt	r4, #1
    a492:	4605      	mov	r5, r0
    a494:	4608      	mov	r0, r1
    a496:	2300      	movs	r3, #0
    a498:	6023      	str	r3, [r4, #0]
    a49a:	f7fe e8fe 	blx	8698 <_sbrk>
    a49e:	1c43      	adds	r3, r0, #1
    a4a0:	d000      	beq.n	a4a4 <_sbrk_r+0x1c>
    a4a2:	bd38      	pop	{r3, r4, r5, pc}
    a4a4:	6823      	ldr	r3, [r4, #0]
    a4a6:	2b00      	cmp	r3, #0
    a4a8:	d0fb      	beq.n	a4a2 <_sbrk_r+0x1a>
    a4aa:	602b      	str	r3, [r5, #0]
    a4ac:	bd38      	pop	{r3, r4, r5, pc}
    a4ae:	bf00      	nop

0000a4b0 <strlen>:
    a4b0:	f020 0103 	bic.w	r1, r0, #3
    a4b4:	f010 0003 	ands.w	r0, r0, #3
    a4b8:	f1c0 0000 	rsb	r0, r0, #0
    a4bc:	f851 3b04 	ldr.w	r3, [r1], #4
    a4c0:	f100 0c04 	add.w	ip, r0, #4
    a4c4:	ea4f 0ccc 	mov.w	ip, ip, lsl #3
    a4c8:	f06f 0200 	mvn.w	r2, #0
    a4cc:	bf1c      	itt	ne
    a4ce:	fa22 f20c 	lsrne.w	r2, r2, ip
    a4d2:	4313      	orrne	r3, r2
    a4d4:	f04f 0c01 	mov.w	ip, #1
    a4d8:	ea4c 2c0c 	orr.w	ip, ip, ip, lsl #8
    a4dc:	ea4c 4c0c 	orr.w	ip, ip, ip, lsl #16
    a4e0:	eba3 020c 	sub.w	r2, r3, ip
    a4e4:	ea22 0203 	bic.w	r2, r2, r3
    a4e8:	ea12 12cc 	ands.w	r2, r2, ip, lsl #7
    a4ec:	bf04      	itt	eq
    a4ee:	f851 3b04 	ldreq.w	r3, [r1], #4
    a4f2:	3004      	addeq	r0, #4
    a4f4:	d0f4      	beq.n	a4e0 <strlen+0x30>
    a4f6:	f013 0fff 	tst.w	r3, #255	; 0xff
    a4fa:	bf1f      	itttt	ne
    a4fc:	3001      	addne	r0, #1
    a4fe:	f413 4f7f 	tstne.w	r3, #65280	; 0xff00
    a502:	3001      	addne	r0, #1
    a504:	f413 0f7f 	tstne.w	r3, #16711680	; 0xff0000
    a508:	bf18      	it	ne
    a50a:	3001      	addne	r0, #1
    a50c:	4770      	bx	lr
    a50e:	bf00      	nop

0000a510 <_malloc_trim_r>:
    a510:	b5f8      	push	{r3, r4, r5, r6, r7, lr}
    a512:	f64a 44e0 	movw	r4, #44256	; 0xace0
    a516:	f2c0 0400 	movt	r4, #0
    a51a:	460f      	mov	r7, r1
    a51c:	4605      	mov	r5, r0
    a51e:	f7ff ff59 	bl	a3d4 <__malloc_lock>
    a522:	68a3      	ldr	r3, [r4, #8]
    a524:	685e      	ldr	r6, [r3, #4]
    a526:	f026 0603 	bic.w	r6, r6, #3
    a52a:	1bf7      	subs	r7, r6, r7
    a52c:	f607 77ef 	addw	r7, r7, #4079	; 0xfef
    a530:	0b3f      	lsrs	r7, r7, #12
    a532:	3f01      	subs	r7, #1
    a534:	033f      	lsls	r7, r7, #12
    a536:	f5b7 5f80 	cmp.w	r7, #4096	; 0x1000
    a53a:	db07      	blt.n	a54c <_malloc_trim_r+0x3c>
    a53c:	4628      	mov	r0, r5
    a53e:	2100      	movs	r1, #0
    a540:	f7ff ffa2 	bl	a488 <_sbrk_r>
    a544:	68a3      	ldr	r3, [r4, #8]
    a546:	4433      	add	r3, r6
    a548:	4298      	cmp	r0, r3
    a54a:	d004      	beq.n	a556 <_malloc_trim_r+0x46>
    a54c:	4628      	mov	r0, r5
    a54e:	f7ff ff43 	bl	a3d8 <__malloc_unlock>
    a552:	2000      	movs	r0, #0
    a554:	bdf8      	pop	{r3, r4, r5, r6, r7, pc}
    a556:	4628      	mov	r0, r5
    a558:	4279      	negs	r1, r7
    a55a:	f7ff ff95 	bl	a488 <_sbrk_r>
    a55e:	3001      	adds	r0, #1
    a560:	d010      	beq.n	a584 <_malloc_trim_r+0x74>
    a562:	68a1      	ldr	r1, [r4, #8]
    a564:	f244 031c 	movw	r3, #16412	; 0x401c
    a568:	f2c0 0301 	movt	r3, #1
    a56c:	1bf6      	subs	r6, r6, r7
    a56e:	4628      	mov	r0, r5
    a570:	f046 0601 	orr.w	r6, r6, #1
    a574:	681a      	ldr	r2, [r3, #0]
    a576:	604e      	str	r6, [r1, #4]
    a578:	1bd7      	subs	r7, r2, r7
    a57a:	601f      	str	r7, [r3, #0]
    a57c:	f7ff ff2c 	bl	a3d8 <__malloc_unlock>
    a580:	2001      	movs	r0, #1
    a582:	bdf8      	pop	{r3, r4, r5, r6, r7, pc}
    a584:	4628      	mov	r0, r5
    a586:	2100      	movs	r1, #0
    a588:	f7ff ff7e 	bl	a488 <_sbrk_r>
    a58c:	68a3      	ldr	r3, [r4, #8]
    a58e:	1ac2      	subs	r2, r0, r3
    a590:	2a0f      	cmp	r2, #15
    a592:	dddb      	ble.n	a54c <_malloc_trim_r+0x3c>
    a594:	f24b 04ec 	movw	r4, #45292	; 0xb0ec
    a598:	f2c0 0400 	movt	r4, #0
    a59c:	f244 011c 	movw	r1, #16412	; 0x401c
    a5a0:	f2c0 0101 	movt	r1, #1
    a5a4:	6824      	ldr	r4, [r4, #0]
    a5a6:	f042 0201 	orr.w	r2, r2, #1
    a5aa:	605a      	str	r2, [r3, #4]
    a5ac:	1b00      	subs	r0, r0, r4
    a5ae:	6008      	str	r0, [r1, #0]
    a5b0:	e7cc      	b.n	a54c <_malloc_trim_r+0x3c>
    a5b2:	bf00      	nop

0000a5b4 <_free_r>:
    a5b4:	e92d 41f0 	stmdb	sp!, {r4, r5, r6, r7, r8, lr}
    a5b8:	460e      	mov	r6, r1
    a5ba:	4680      	mov	r8, r0
    a5bc:	2900      	cmp	r1, #0
    a5be:	d05e      	beq.n	a67e <_free_r+0xca>
    a5c0:	f7ff ff08 	bl	a3d4 <__malloc_lock>
    a5c4:	f856 1c04 	ldr.w	r1, [r6, #-4]
    a5c8:	f64a 45e0 	movw	r5, #44256	; 0xace0
    a5cc:	f2c0 0500 	movt	r5, #0
    a5d0:	f1a6 0408 	sub.w	r4, r6, #8
    a5d4:	f021 0301 	bic.w	r3, r1, #1
    a5d8:	18e2      	adds	r2, r4, r3
    a5da:	68af      	ldr	r7, [r5, #8]
    a5dc:	6850      	ldr	r0, [r2, #4]
    a5de:	4297      	cmp	r7, r2
    a5e0:	f020 0003 	bic.w	r0, r0, #3
    a5e4:	d061      	beq.n	a6aa <_free_r+0xf6>
    a5e6:	f011 0101 	ands.w	r1, r1, #1
    a5ea:	6050      	str	r0, [r2, #4]
    a5ec:	bf18      	it	ne
    a5ee:	2100      	movne	r1, #0
    a5f0:	d10f      	bne.n	a612 <_free_r+0x5e>
    a5f2:	f856 6c08 	ldr.w	r6, [r6, #-8]
    a5f6:	f105 0c08 	add.w	ip, r5, #8
    a5fa:	1ba4      	subs	r4, r4, r6
    a5fc:	4433      	add	r3, r6
    a5fe:	68a6      	ldr	r6, [r4, #8]
    a600:	4566      	cmp	r6, ip
    a602:	bf17      	itett	ne
    a604:	f8d4 c00c 	ldrne.w	ip, [r4, #12]
    a608:	2101      	moveq	r1, #1
    a60a:	f8c6 c00c 	strne.w	ip, [r6, #12]
    a60e:	f8cc 6008 	strne.w	r6, [ip, #8]
    a612:	1816      	adds	r6, r2, r0
    a614:	6876      	ldr	r6, [r6, #4]
    a616:	07f6      	lsls	r6, r6, #31
    a618:	d408      	bmi.n	a62c <_free_r+0x78>
    a61a:	4403      	add	r3, r0
    a61c:	6890      	ldr	r0, [r2, #8]
    a61e:	b911      	cbnz	r1, a626 <_free_r+0x72>
    a620:	4e49      	ldr	r6, [pc, #292]	; (a748 <_free_r+0x194>)
    a622:	42b0      	cmp	r0, r6
    a624:	d060      	beq.n	a6e8 <_free_r+0x134>
    a626:	68d2      	ldr	r2, [r2, #12]
    a628:	60c2      	str	r2, [r0, #12]
    a62a:	6090      	str	r0, [r2, #8]
    a62c:	f043 0201 	orr.w	r2, r3, #1
    a630:	6062      	str	r2, [r4, #4]
    a632:	50e3      	str	r3, [r4, r3]
    a634:	b9f1      	cbnz	r1, a674 <_free_r+0xc0>
    a636:	f5b3 7f00 	cmp.w	r3, #512	; 0x200
    a63a:	d322      	bcc.n	a682 <_free_r+0xce>
    a63c:	0a5a      	lsrs	r2, r3, #9
    a63e:	2a04      	cmp	r2, #4
    a640:	d85b      	bhi.n	a6fa <_free_r+0x146>
    a642:	0998      	lsrs	r0, r3, #6
    a644:	3038      	adds	r0, #56	; 0x38
    a646:	0041      	lsls	r1, r0, #1
    a648:	eb05 0581 	add.w	r5, r5, r1, lsl #2
    a64c:	f64a 41e0 	movw	r1, #44256	; 0xace0
    a650:	f2c0 0100 	movt	r1, #0
    a654:	68aa      	ldr	r2, [r5, #8]
    a656:	42aa      	cmp	r2, r5
    a658:	d05b      	beq.n	a712 <_free_r+0x15e>
    a65a:	6851      	ldr	r1, [r2, #4]
    a65c:	f021 0103 	bic.w	r1, r1, #3
    a660:	428b      	cmp	r3, r1
    a662:	d202      	bcs.n	a66a <_free_r+0xb6>
    a664:	6892      	ldr	r2, [r2, #8]
    a666:	4295      	cmp	r5, r2
    a668:	d1f7      	bne.n	a65a <_free_r+0xa6>
    a66a:	68d3      	ldr	r3, [r2, #12]
    a66c:	60e3      	str	r3, [r4, #12]
    a66e:	60a2      	str	r2, [r4, #8]
    a670:	609c      	str	r4, [r3, #8]
    a672:	60d4      	str	r4, [r2, #12]
    a674:	4640      	mov	r0, r8
    a676:	e8bd 41f0 	ldmia.w	sp!, {r4, r5, r6, r7, r8, lr}
    a67a:	f7ff bead 	b.w	a3d8 <__malloc_unlock>
    a67e:	e8bd 81f0 	ldmia.w	sp!, {r4, r5, r6, r7, r8, pc}
    a682:	08db      	lsrs	r3, r3, #3
    a684:	2101      	movs	r1, #1
    a686:	6868      	ldr	r0, [r5, #4]
    a688:	eb05 02c3 	add.w	r2, r5, r3, lsl #3
    a68c:	109b      	asrs	r3, r3, #2
    a68e:	fa01 f303 	lsl.w	r3, r1, r3
    a692:	6891      	ldr	r1, [r2, #8]
    a694:	4318      	orrs	r0, r3
    a696:	60e2      	str	r2, [r4, #12]
    a698:	6068      	str	r0, [r5, #4]
    a69a:	4640      	mov	r0, r8
    a69c:	60a1      	str	r1, [r4, #8]
    a69e:	6094      	str	r4, [r2, #8]
    a6a0:	60cc      	str	r4, [r1, #12]
    a6a2:	e8bd 41f0 	ldmia.w	sp!, {r4, r5, r6, r7, r8, lr}
    a6a6:	f7ff be97 	b.w	a3d8 <__malloc_unlock>
    a6aa:	07cf      	lsls	r7, r1, #31
    a6ac:	4418      	add	r0, r3
    a6ae:	d407      	bmi.n	a6c0 <_free_r+0x10c>
    a6b0:	f856 3c08 	ldr.w	r3, [r6, #-8]
    a6b4:	1ae4      	subs	r4, r4, r3
    a6b6:	4418      	add	r0, r3
    a6b8:	68a2      	ldr	r2, [r4, #8]
    a6ba:	68e3      	ldr	r3, [r4, #12]
    a6bc:	60d3      	str	r3, [r2, #12]
    a6be:	609a      	str	r2, [r3, #8]
    a6c0:	f24b 02e8 	movw	r2, #45288	; 0xb0e8
    a6c4:	f2c0 0200 	movt	r2, #0
    a6c8:	f040 0301 	orr.w	r3, r0, #1
    a6cc:	6063      	str	r3, [r4, #4]
    a6ce:	6813      	ldr	r3, [r2, #0]
    a6d0:	60ac      	str	r4, [r5, #8]
    a6d2:	4298      	cmp	r0, r3
    a6d4:	d3ce      	bcc.n	a674 <_free_r+0xc0>
    a6d6:	f244 0318 	movw	r3, #16408	; 0x4018
    a6da:	f2c0 0301 	movt	r3, #1
    a6de:	4640      	mov	r0, r8
    a6e0:	6819      	ldr	r1, [r3, #0]
    a6e2:	f7ff ff15 	bl	a510 <_malloc_trim_r>
    a6e6:	e7c5      	b.n	a674 <_free_r+0xc0>
    a6e8:	616c      	str	r4, [r5, #20]
    a6ea:	f043 0201 	orr.w	r2, r3, #1
    a6ee:	612c      	str	r4, [r5, #16]
    a6f0:	60e0      	str	r0, [r4, #12]
    a6f2:	60a0      	str	r0, [r4, #8]
    a6f4:	6062      	str	r2, [r4, #4]
    a6f6:	50e3      	str	r3, [r4, r3]
    a6f8:	e7bc      	b.n	a674 <_free_r+0xc0>
    a6fa:	2a14      	cmp	r2, #20
    a6fc:	bf9c      	itt	ls
    a6fe:	f102 005b 	addls.w	r0, r2, #91	; 0x5b
    a702:	0041      	lslls	r1, r0, #1
    a704:	d9a0      	bls.n	a648 <_free_r+0x94>
    a706:	2a54      	cmp	r2, #84	; 0x54
    a708:	d80c      	bhi.n	a724 <_free_r+0x170>
    a70a:	0b18      	lsrs	r0, r3, #12
    a70c:	306e      	adds	r0, #110	; 0x6e
    a70e:	0041      	lsls	r1, r0, #1
    a710:	e79a      	b.n	a648 <_free_r+0x94>
    a712:	2301      	movs	r3, #1
    a714:	684d      	ldr	r5, [r1, #4]
    a716:	1080      	asrs	r0, r0, #2
    a718:	fa03 f000 	lsl.w	r0, r3, r0
    a71c:	4613      	mov	r3, r2
    a71e:	4305      	orrs	r5, r0
    a720:	604d      	str	r5, [r1, #4]
    a722:	e7a3      	b.n	a66c <_free_r+0xb8>
    a724:	f5b2 7faa 	cmp.w	r2, #340	; 0x154
    a728:	d803      	bhi.n	a732 <_free_r+0x17e>
    a72a:	0bd8      	lsrs	r0, r3, #15
    a72c:	3077      	adds	r0, #119	; 0x77
    a72e:	0041      	lsls	r1, r0, #1
    a730:	e78a      	b.n	a648 <_free_r+0x94>
    a732:	f240 5154 	movw	r1, #1364	; 0x554
    a736:	428a      	cmp	r2, r1
    a738:	bf99      	ittee	ls
    a73a:	0c98      	lsrls	r0, r3, #18
    a73c:	307c      	addls	r0, #124	; 0x7c
    a73e:	21fc      	movhi	r1, #252	; 0xfc
    a740:	207e      	movhi	r0, #126	; 0x7e
    a742:	bf98      	it	ls
    a744:	0041      	lslls	r1, r0, #1
    a746:	e77f      	b.n	a648 <_free_r+0x94>
    a748:	0000ace8 	andeq	sl, r0, r8, ror #25
